
mt-csaxpy.riscv:     file format elf64-littleriscv


Disassembly of section .text.init:

0000000000000000 <_start>:
   0:	00001197          	auipc	gp,0x1
   4:	08018193          	addi	gp,gp,128 # 1080 <_gp>
   8:	00000093          	li	ra,0
   c:	00000113          	li	sp,0
  10:	00000193          	li	gp,0
  14:	00000213          	li	tp,0
  18:	00000293          	li	t0,0
  1c:	00000313          	li	t1,0
  20:	00000393          	li	t2,0
  24:	00000413          	li	s0,0
  28:	00000493          	li	s1,0
  2c:	00000513          	li	a0,0
  30:	00000593          	li	a1,0
  34:	00000613          	li	a2,0
  38:	00000693          	li	a3,0
  3c:	00000713          	li	a4,0
  40:	00000793          	li	a5,0
  44:	00000813          	li	a6,0
  48:	00000893          	li	a7,0
  4c:	00000913          	li	s2,0
  50:	00000993          	li	s3,0
  54:	00000a13          	li	s4,0
  58:	00000a93          	li	s5,0
  5c:	00000b13          	li	s6,0
  60:	00000b93          	li	s7,0
  64:	00000c13          	li	s8,0
  68:	00000c93          	li	s9,0
  6c:	00000d13          	li	s10,0
  70:	00000d93          	li	s11,0
  74:	00000e13          	li	t3,0
  78:	00000e93          	li	t4,0
  7c:	00000f13          	li	t5,0
  80:	00000f93          	li	t6,0
  84:	00100293          	li	t0,1
  88:	01f29293          	slli	t0,t0,0x1f
  8c:	0202d063          	bgez	t0,ac <_start+0xac>
  90:	00100513          	li	a0,1
  94:	000e0337          	lui	t1,0xe0
  98:	0013031b          	addiw	t1,t1,1
  9c:	00c31313          	slli	t1,t1,0xc
  a0:	03030313          	addi	t1,t1,48 # e0030 <count.1+0xbfbcc>
  a4:	00a32023          	sw	a0,0(t1)
  a8:	fe9ff06f          	j	90 <_start+0x90>
  ac:	00000297          	auipc	t0,0x0
  b0:	08c28293          	addi	t0,t0,140 # 138 <trap_entry>
  b4:	30529073          	csrw	mtvec,t0
  b8:	f1402573          	csrr	a0,mhartid
  bc:	00020617          	auipc	a2,0x20
  c0:	39c60613          	addi	a2,a2,924 # 20458 <hart_init_sync>
  c4:	00100313          	li	t1,1
  c8:	00660023          	sb	t1,0(a2)
  cc:	0ff0000f          	fence
  d0:	02051863          	bnez	a0,100 <sync_all_harts>
  d4:	00020f17          	auipc	t5,0x20
  d8:	38cf0f13          	addi	t5,t5,908 # 20460 <sense.0>
  dc:	00020f97          	auipc	t6,0x20
  e0:	384f8f93          	addi	t6,t6,900 # 20460 <sense.0>

00000000000000e4 <clear_bss>:
  e4:	01ff5863          	bge	t5,t6,f4 <finish_bss>
  e8:	000f2023          	sw	zero,0(t5)
  ec:	004f0f13          	addi	t5,t5,4
  f0:	ff5ff06f          	j	e4 <clear_bss>

00000000000000f4 <finish_bss>:
  f4:	00020597          	auipc	a1,0x20
  f8:	36458593          	addi	a1,a1,868 # 20458 <hart_init_sync>
  fc:	0005a023          	sw	zero,0(a1)

0000000000000100 <sync_all_harts>:
 100:	00020597          	auipc	a1,0x20
 104:	35858593          	addi	a1,a1,856 # 20458 <hart_init_sync>
 108:	0005a603          	lw	a2,0(a1)
 10c:	fe061ae3          	bnez	a2,100 <sync_all_harts>
 110:	00200593          	li	a1,2
 114:	00100e13          	li	t3,1
 118:	012e1393          	slli	t2,t3,0x12
 11c:	027502b3          	mul	t0,a0,t2
 120:	10040337          	lui	t1,0x10040
 124:	00530333          	add	t1,t1,t0
 128:	00030213          	mv	tp,t1
 12c:	00730333          	add	t1,t1,t2
 130:	00030113          	mv	sp,t1
 134:	188000ef          	jal	ra,2bc <thread_entry>

0000000000000138 <trap_entry>:
 138:	ef010113          	addi	sp,sp,-272
 13c:	00113423          	sd	ra,8(sp)
 140:	00213823          	sd	sp,16(sp)
 144:	00313c23          	sd	gp,24(sp)
 148:	02413023          	sd	tp,32(sp)
 14c:	02513423          	sd	t0,40(sp)
 150:	02613823          	sd	t1,48(sp)
 154:	02713c23          	sd	t2,56(sp)
 158:	04813023          	sd	s0,64(sp)
 15c:	04913423          	sd	s1,72(sp)
 160:	04a13823          	sd	a0,80(sp)
 164:	04b13c23          	sd	a1,88(sp)
 168:	06c13023          	sd	a2,96(sp)
 16c:	06d13423          	sd	a3,104(sp)
 170:	06e13823          	sd	a4,112(sp)
 174:	06f13c23          	sd	a5,120(sp)
 178:	09013023          	sd	a6,128(sp)
 17c:	09113423          	sd	a7,136(sp)
 180:	09213823          	sd	s2,144(sp)
 184:	09313c23          	sd	s3,152(sp)
 188:	0b413023          	sd	s4,160(sp)
 18c:	0b513423          	sd	s5,168(sp)
 190:	0b613823          	sd	s6,176(sp)
 194:	0b713c23          	sd	s7,184(sp)
 198:	0d813023          	sd	s8,192(sp)
 19c:	0d913423          	sd	s9,200(sp)
 1a0:	0da13823          	sd	s10,208(sp)
 1a4:	0db13c23          	sd	s11,216(sp)
 1a8:	0fc13023          	sd	t3,224(sp)
 1ac:	0fd13423          	sd	t4,232(sp)
 1b0:	0fe13823          	sd	t5,240(sp)
 1b4:	0ff13c23          	sd	t6,248(sp)
 1b8:	34202573          	csrr	a0,mcause
 1bc:	341025f3          	csrr	a1,mepc
 1c0:	00010613          	mv	a2,sp
 1c4:	0f8000ef          	jal	ra,2bc <thread_entry>
 1c8:	34151073          	csrw	mepc,a0
 1cc:	000022b7          	lui	t0,0x2
 1d0:	8002829b          	addiw	t0,t0,-2048
 1d4:	3002a073          	csrs	mstatus,t0
 1d8:	00813083          	ld	ra,8(sp)
 1dc:	01013103          	ld	sp,16(sp)
 1e0:	01813183          	ld	gp,24(sp)
 1e4:	02013203          	ld	tp,32(sp)
 1e8:	02813283          	ld	t0,40(sp)
 1ec:	03013303          	ld	t1,48(sp)
 1f0:	03813383          	ld	t2,56(sp)
 1f4:	04013403          	ld	s0,64(sp)
 1f8:	04813483          	ld	s1,72(sp)
 1fc:	05013503          	ld	a0,80(sp)
 200:	05813583          	ld	a1,88(sp)
 204:	06013603          	ld	a2,96(sp)
 208:	06813683          	ld	a3,104(sp)
 20c:	07013703          	ld	a4,112(sp)
 210:	07813783          	ld	a5,120(sp)
 214:	08013803          	ld	a6,128(sp)
 218:	08813883          	ld	a7,136(sp)
 21c:	09013903          	ld	s2,144(sp)
 220:	09813983          	ld	s3,152(sp)
 224:	0a013a03          	ld	s4,160(sp)
 228:	0a813a83          	ld	s5,168(sp)
 22c:	0b013b03          	ld	s6,176(sp)
 230:	0b813b83          	ld	s7,184(sp)
 234:	0c013c03          	ld	s8,192(sp)
 238:	0c813c83          	ld	s9,200(sp)
 23c:	0d013d03          	ld	s10,208(sp)
 240:	0d813d83          	ld	s11,216(sp)
 244:	0e013e03          	ld	t3,224(sp)
 248:	0e813e83          	ld	t4,232(sp)
 24c:	0f013f03          	ld	t5,240(sp)
 250:	0f813f83          	ld	t6,248(sp)
 254:	11010113          	addi	sp,sp,272
 258:	30200073          	mret

Disassembly of section .text:

000000000000025c <barrier>:
 25c:	0ff0000f          	fence
 260:	00022703          	lw	a4,0(tp) # 0 <_start>
 264:	00100693          	li	a3,1
 268:	00173713          	seqz	a4,a4
 26c:	00e22023          	sw	a4,0(tp) # 0 <_start>
 270:	00020717          	auipc	a4,0x20
 274:	1f470713          	addi	a4,a4,500 # 20464 <count.1>
 278:	06d7272f          	amoadd.w.aqrl	a4,a3,(a4)
 27c:	0007071b          	sext.w	a4,a4
 280:	fff5051b          	addiw	a0,a0,-1
 284:	02e50063          	beq	a0,a4,2a4 <barrier+0x48>
 288:	00022683          	lw	a3,0(tp) # 0 <_start>
 28c:	00020717          	auipc	a4,0x20
 290:	1d470713          	addi	a4,a4,468 # 20460 <sense.0>
 294:	00072783          	lw	a5,0(a4)
 298:	fed79ee3          	bne	a5,a3,294 <barrier+0x38>
 29c:	0ff0000f          	fence
 2a0:	00008067          	ret
 2a4:	00022783          	lw	a5,0(tp) # 0 <_start>
 2a8:	00020717          	auipc	a4,0x20
 2ac:	1a072e23          	sw	zero,444(a4) # 20464 <count.1>
 2b0:	00020717          	auipc	a4,0x20
 2b4:	1af72823          	sw	a5,432(a4) # 20460 <sense.0>
 2b8:	fe5ff06f          	j	29c <barrier+0x40>

00000000000002bc <thread_entry>:
 2bc:	00002637          	lui	a2,0x2
 2c0:	fe010113          	addi	sp,sp,-32
 2c4:	00000817          	auipc	a6,0x0
 2c8:	5c480813          	addi	a6,a6,1476 # 888 <cond_data>
 2cc:	0000d797          	auipc	a5,0xd
 2d0:	90c78793          	addi	a5,a5,-1780 # cbd8 <input_data_Y>
 2d4:	00016717          	auipc	a4,0x16
 2d8:	54470713          	addi	a4,a4,1348 # 16818 <input_data_X>
 2dc:	00000697          	auipc	a3,0x0
 2e0:	5a46a683          	lw	a3,1444(a3) # 880 <input_data_a>
 2e4:	71060613          	addi	a2,a2,1808 # 2710 <_gp+0x1690>
 2e8:	00813823          	sd	s0,16(sp)
 2ec:	00913423          	sd	s1,8(sp)
 2f0:	00050413          	mv	s0,a0
 2f4:	00113c23          	sd	ra,24(sp)
 2f8:	00058493          	mv	s1,a1
 2fc:	098000ef          	jal	ra,394 <mt_csaxpy>
 300:	00048513          	mv	a0,s1
 304:	f59ff0ef          	jal	ra,25c <barrier>
 308:	00040663          	beqz	s0,314 <thread_entry+0x58>
 30c:	00000513          	li	a0,0
 310:	4f8000ef          	jal	ra,808 <exit>
 314:	000028b7          	lui	a7,0x2
 318:	0000d717          	auipc	a4,0xd
 31c:	8c070713          	addi	a4,a4,-1856 # cbd8 <input_data_Y>
 320:	00003797          	auipc	a5,0x3
 324:	c7878793          	addi	a5,a5,-904 # 2f98 <verify_data>
 328:	00000513          	li	a0,0
 32c:	71088893          	addi	a7,a7,1808 # 2710 <_gp+0x1690>
 330:	0180006f          	j	348 <thread_entry+0x8c>
 334:	0025051b          	addiw	a0,a0,2
 338:	03069663          	bne	a3,a6,364 <thread_entry+0xa8>
 33c:	00870713          	addi	a4,a4,8
 340:	00878793          	addi	a5,a5,8
 344:	05150463          	beq	a0,a7,38c <thread_entry+0xd0>
 348:	00072603          	lw	a2,0(a4)
 34c:	0007a583          	lw	a1,0(a5)
 350:	00472683          	lw	a3,4(a4)
 354:	0047a803          	lw	a6,4(a5)
 358:	0006869b          	sext.w	a3,a3
 35c:	fcc58ce3          	beq	a1,a2,334 <thread_entry+0x78>
 360:	0015051b          	addiw	a0,a0,1
 364:	154000ef          	jal	ra,4b8 <uart_send_integer>
 368:	00000517          	auipc	a0,0x0
 36c:	4d850513          	addi	a0,a0,1240 # 840 <main+0x34>
 370:	11c000ef          	jal	ra,48c <uart_send_string>
 374:	00002537          	lui	a0,0x2
 378:	0000d597          	auipc	a1,0xd
 37c:	86058593          	addi	a1,a1,-1952 # cbd8 <input_data_Y>
 380:	71050513          	addi	a0,a0,1808 # 2710 <_gp+0x1690>
 384:	25c000ef          	jal	ra,5e0 <syscall_print_array>
 388:	f85ff06f          	j	30c <thread_entry+0x50>
 38c:	00000513          	li	a0,0
 390:	fd5ff06f          	j	364 <thread_entry+0xa8>

0000000000000394 <mt_csaxpy>:
 394:	02b645bb          	divw	a1,a2,a1
 398:	02b50533          	mul	a0,a0,a1
 39c:	00a585b3          	add	a1,a1,a0
 3a0:	00b67463          	bgeu	a2,a1,3a8 <mt_csaxpy+0x14>
 3a4:	00060593          	mv	a1,a2
 3a8:	04b57263          	bgeu	a0,a1,3ec <mt_csaxpy+0x58>
 3ac:	00251613          	slli	a2,a0,0x2
 3b0:	00c787b3          	add	a5,a5,a2
 3b4:	00a80533          	add	a0,a6,a0
 3b8:	00c70733          	add	a4,a4,a2
 3bc:	00b80833          	add	a6,a6,a1
 3c0:	00054603          	lbu	a2,0(a0)
 3c4:	00150513          	addi	a0,a0,1
 3c8:	00060c63          	beqz	a2,3e0 <mt_csaxpy+0x4c>
 3cc:	00072603          	lw	a2,0(a4)
 3d0:	0007a583          	lw	a1,0(a5)
 3d4:	02d6063b          	mulw	a2,a2,a3
 3d8:	00b6063b          	addw	a2,a2,a1
 3dc:	00c7a023          	sw	a2,0(a5)
 3e0:	00478793          	addi	a5,a5,4
 3e4:	00470713          	addi	a4,a4,4
 3e8:	fd051ce3          	bne	a0,a6,3c0 <mt_csaxpy+0x2c>
 3ec:	00008067          	ret

00000000000003f0 <uart_send_integer.part.0>:
 3f0:	08054063          	bltz	a0,470 <uart_send_integer.part.0+0x80>
 3f4:	06050c63          	beqz	a0,46c <uart_send_integer.part.0+0x7c>
 3f8:	ff010113          	addi	sp,sp,-16
 3fc:	00010793          	mv	a5,sp
 400:	00078713          	mv	a4,a5
 404:	00a00613          	li	a2,10
 408:	02c566bb          	remw	a3,a0,a2
 40c:	00070593          	mv	a1,a4
 410:	00170713          	addi	a4,a4,1
 414:	02c5453b          	divw	a0,a0,a2
 418:	0306869b          	addiw	a3,a3,48
 41c:	fed70fa3          	sb	a3,-1(a4)
 420:	fe0514e3          	bnez	a0,408 <uart_send_integer.part.0+0x18>
 424:	40f585bb          	subw	a1,a1,a5
 428:	0015871b          	addiw	a4,a1,1
 42c:	fff7059b          	addiw	a1,a4,-1
 430:	fff78613          	addi	a2,a5,-1
 434:	0e0006b7          	lui	a3,0xe000
 438:	02059593          	slli	a1,a1,0x20
 43c:	00e60633          	add	a2,a2,a4
 440:	0205d593          	srli	a1,a1,0x20
 444:	10368693          	addi	a3,a3,259 # e000103 <count.1+0xdfdfc9f>
 448:	00e787b3          	add	a5,a5,a4
 44c:	40b60633          	sub	a2,a2,a1
 450:	00469693          	slli	a3,a3,0x4
 454:	fff7c703          	lbu	a4,-1(a5)
 458:	fff78793          	addi	a5,a5,-1
 45c:	00e6a023          	sw	a4,0(a3)
 460:	fec79ae3          	bne	a5,a2,454 <uart_send_integer.part.0+0x64>
 464:	01010113          	addi	sp,sp,16
 468:	00008067          	ret
 46c:	00008067          	ret
 470:	0e0007b7          	lui	a5,0xe000
 474:	10378793          	addi	a5,a5,259 # e000103 <count.1+0xdfdfc9f>
 478:	00479793          	slli	a5,a5,0x4
 47c:	02d00713          	li	a4,45
 480:	00e7a023          	sw	a4,0(a5)
 484:	40a0053b          	negw	a0,a0
 488:	f71ff06f          	j	3f8 <uart_send_integer.part.0+0x8>

000000000000048c <uart_send_string>:
 48c:	00054783          	lbu	a5,0(a0)
 490:	02078263          	beqz	a5,4b4 <uart_send_string+0x28>
 494:	0e000737          	lui	a4,0xe000
 498:	10370713          	addi	a4,a4,259 # e000103 <count.1+0xdfdfc9f>
 49c:	00471713          	slli	a4,a4,0x4
 4a0:	0007879b          	sext.w	a5,a5
 4a4:	00150513          	addi	a0,a0,1
 4a8:	00f72023          	sw	a5,0(a4)
 4ac:	00054783          	lbu	a5,0(a0)
 4b0:	fe0798e3          	bnez	a5,4a0 <uart_send_string+0x14>
 4b4:	00008067          	ret

00000000000004b8 <uart_send_integer>:
 4b8:	00050463          	beqz	a0,4c0 <uart_send_integer+0x8>
 4bc:	f35ff06f          	j	3f0 <uart_send_integer.part.0>
 4c0:	0e0007b7          	lui	a5,0xe000
 4c4:	10378793          	addi	a5,a5,259 # e000103 <count.1+0xdfdfc9f>
 4c8:	00479793          	slli	a5,a5,0x4
 4cc:	03000713          	li	a4,48
 4d0:	00e7a023          	sw	a4,0(a5)
 4d4:	00008067          	ret

00000000000004d8 <syscall_print_matrix>:
 4d8:	0e0006b7          	lui	a3,0xe000
 4dc:	fb010113          	addi	sp,sp,-80
 4e0:	10368693          	addi	a3,a3,259 # e000103 <count.1+0xdfdfc9f>
 4e4:	01513c23          	sd	s5,24(sp)
 4e8:	04113423          	sd	ra,72(sp)
 4ec:	03213823          	sd	s2,48(sp)
 4f0:	03413023          	sd	s4,32(sp)
 4f4:	01713423          	sd	s7,8(sp)
 4f8:	00050a93          	mv	s5,a0
 4fc:	05200793          	li	a5,82
 500:	00000717          	auipc	a4,0x0
 504:	34870713          	addi	a4,a4,840 # 848 <main+0x3c>
 508:	00469693          	slli	a3,a3,0x4
 50c:	0007879b          	sext.w	a5,a5
 510:	00170713          	addi	a4,a4,1
 514:	00f6a023          	sw	a5,0(a3)
 518:	00074783          	lbu	a5,0(a4)
 51c:	fe0798e3          	bnez	a5,50c <syscall_print_matrix+0x34>
 520:	002a9b93          	slli	s7,s5,0x2
 524:	01758933          	add	s2,a1,s7
 528:	00000a13          	li	s4,0
 52c:	09505263          	blez	s5,5b0 <syscall_print_matrix+0xd8>
 530:	02913c23          	sd	s1,56(sp)
 534:	0e0004b7          	lui	s1,0xe000
 538:	10348493          	addi	s1,s1,259 # e000103 <count.1+0xdfdfc9f>
 53c:	03313423          	sd	s3,40(sp)
 540:	01613823          	sd	s6,16(sp)
 544:	01813023          	sd	s8,0(sp)
 548:	04813023          	sd	s0,64(sp)
 54c:	00449493          	slli	s1,s1,0x4
 550:	03000b13          	li	s6,48
 554:	02000993          	li	s3,32
 558:	00a00c13          	li	s8,10
 55c:	41790433          	sub	s0,s2,s7
 560:	0140006f          	j	574 <syscall_print_matrix+0x9c>
 564:	e8dff0ef          	jal	ra,3f0 <uart_send_integer.part.0>
 568:	00440413          	addi	s0,s0,4
 56c:	0134a023          	sw	s3,0(s1)
 570:	00890e63          	beq	s2,s0,58c <syscall_print_matrix+0xb4>
 574:	00042503          	lw	a0,0(s0)
 578:	fe0516e3          	bnez	a0,564 <syscall_print_matrix+0x8c>
 57c:	0164a023          	sw	s6,0(s1)
 580:	0134a023          	sw	s3,0(s1)
 584:	00440413          	addi	s0,s0,4
 588:	fe8916e3          	bne	s2,s0,574 <syscall_print_matrix+0x9c>
 58c:	0184a023          	sw	s8,0(s1)
 590:	001a0a1b          	addiw	s4,s4,1
 594:	01790933          	add	s2,s2,s7
 598:	fd4a92e3          	bne	s5,s4,55c <syscall_print_matrix+0x84>
 59c:	04013403          	ld	s0,64(sp)
 5a0:	03813483          	ld	s1,56(sp)
 5a4:	02813983          	ld	s3,40(sp)
 5a8:	01013b03          	ld	s6,16(sp)
 5ac:	00013c03          	ld	s8,0(sp)
 5b0:	0e0007b7          	lui	a5,0xe000
 5b4:	04813083          	ld	ra,72(sp)
 5b8:	10378793          	addi	a5,a5,259 # e000103 <count.1+0xdfdfc9f>
 5bc:	00479793          	slli	a5,a5,0x4
 5c0:	00a00713          	li	a4,10
 5c4:	00e7a023          	sw	a4,0(a5)
 5c8:	03013903          	ld	s2,48(sp)
 5cc:	02013a03          	ld	s4,32(sp)
 5d0:	01813a83          	ld	s5,24(sp)
 5d4:	00813b83          	ld	s7,8(sp)
 5d8:	05010113          	addi	sp,sp,80
 5dc:	00008067          	ret

00000000000005e0 <syscall_print_array>:
 5e0:	0e0006b7          	lui	a3,0xe000
 5e4:	10368693          	addi	a3,a3,259 # e000103 <count.1+0xdfdfc9f>
 5e8:	05200793          	li	a5,82
 5ec:	00000717          	auipc	a4,0x0
 5f0:	26c70713          	addi	a4,a4,620 # 858 <main+0x4c>
 5f4:	00469693          	slli	a3,a3,0x4
 5f8:	0007879b          	sext.w	a5,a5
 5fc:	00170713          	addi	a4,a4,1
 600:	00f6a023          	sw	a5,0(a3)
 604:	00074783          	lbu	a5,0(a4)
 608:	fe0798e3          	bnez	a5,5f8 <syscall_print_array+0x18>
 60c:	0aa05063          	blez	a0,6ac <syscall_print_array+0xcc>
 610:	fd010113          	addi	sp,sp,-48
 614:	01213823          	sd	s2,16(sp)
 618:	0e000937          	lui	s2,0xe000
 61c:	00251513          	slli	a0,a0,0x2
 620:	10390913          	addi	s2,s2,259 # e000103 <count.1+0xdfdfc9f>
 624:	02813023          	sd	s0,32(sp)
 628:	00913c23          	sd	s1,24(sp)
 62c:	01313423          	sd	s3,8(sp)
 630:	01413023          	sd	s4,0(sp)
 634:	02113423          	sd	ra,40(sp)
 638:	00058413          	mv	s0,a1
 63c:	00a584b3          	add	s1,a1,a0
 640:	00491913          	slli	s2,s2,0x4
 644:	03000a13          	li	s4,48
 648:	02000993          	li	s3,32
 64c:	0140006f          	j	660 <syscall_print_array+0x80>
 650:	da1ff0ef          	jal	ra,3f0 <uart_send_integer.part.0>
 654:	00440413          	addi	s0,s0,4
 658:	01392023          	sw	s3,0(s2)
 65c:	00940e63          	beq	s0,s1,678 <syscall_print_array+0x98>
 660:	00042503          	lw	a0,0(s0)
 664:	fe0516e3          	bnez	a0,650 <syscall_print_array+0x70>
 668:	01492023          	sw	s4,0(s2)
 66c:	01392023          	sw	s3,0(s2)
 670:	00440413          	addi	s0,s0,4
 674:	fe9416e3          	bne	s0,s1,660 <syscall_print_array+0x80>
 678:	0e0007b7          	lui	a5,0xe000
 67c:	02813083          	ld	ra,40(sp)
 680:	02013403          	ld	s0,32(sp)
 684:	10378793          	addi	a5,a5,259 # e000103 <count.1+0xdfdfc9f>
 688:	00479793          	slli	a5,a5,0x4
 68c:	00a00713          	li	a4,10
 690:	00e7a023          	sw	a4,0(a5)
 694:	01813483          	ld	s1,24(sp)
 698:	01013903          	ld	s2,16(sp)
 69c:	00813983          	ld	s3,8(sp)
 6a0:	00013a03          	ld	s4,0(sp)
 6a4:	03010113          	addi	sp,sp,48
 6a8:	00008067          	ret
 6ac:	0e0007b7          	lui	a5,0xe000
 6b0:	10378793          	addi	a5,a5,259 # e000103 <count.1+0xdfdfc9f>
 6b4:	00479793          	slli	a5,a5,0x4
 6b8:	00a00713          	li	a4,10
 6bc:	00e7a023          	sw	a4,0(a5)
 6c0:	00008067          	ret

00000000000006c4 <printf>:
 6c4:	f8010113          	addi	sp,sp,-128
 6c8:	06e13023          	sd	a4,96(sp)
 6cc:	02113c23          	sd	ra,56(sp)
 6d0:	04b13423          	sd	a1,72(sp)
 6d4:	04c13823          	sd	a2,80(sp)
 6d8:	04d13c23          	sd	a3,88(sp)
 6dc:	06f13423          	sd	a5,104(sp)
 6e0:	07013823          	sd	a6,112(sp)
 6e4:	07113c23          	sd	a7,120(sp)
 6e8:	00054783          	lbu	a5,0(a0)
 6ec:	04810713          	addi	a4,sp,72
 6f0:	00e13423          	sd	a4,8(sp)
 6f4:	06078263          	beqz	a5,758 <printf+0x94>
 6f8:	02913423          	sd	s1,40(sp)
 6fc:	0e0004b7          	lui	s1,0xe000
 700:	10348493          	addi	s1,s1,259 # e000103 <count.1+0xdfdfc9f>
 704:	02813823          	sd	s0,48(sp)
 708:	03213023          	sd	s2,32(sp)
 70c:	01313c23          	sd	s3,24(sp)
 710:	01413823          	sd	s4,16(sp)
 714:	00050413          	mv	s0,a0
 718:	02500913          	li	s2,37
 71c:	00449493          	slli	s1,s1,0x4
 720:	06400993          	li	s3,100
 724:	07300a13          	li	s4,115
 728:	03278e63          	beq	a5,s2,764 <printf+0xa0>
 72c:	0007879b          	sext.w	a5,a5
 730:	00f4a023          	sw	a5,0(s1)
 734:	00040513          	mv	a0,s0
 738:	00154783          	lbu	a5,1(a0)
 73c:	00150413          	addi	s0,a0,1
 740:	fe0794e3          	bnez	a5,728 <printf+0x64>
 744:	03013403          	ld	s0,48(sp)
 748:	02813483          	ld	s1,40(sp)
 74c:	02013903          	ld	s2,32(sp)
 750:	01813983          	ld	s3,24(sp)
 754:	01013a03          	ld	s4,16(sp)
 758:	03813083          	ld	ra,56(sp)
 75c:	08010113          	addi	sp,sp,128
 760:	00008067          	ret
 764:	00144783          	lbu	a5,1(s0)
 768:	01378c63          	beq	a5,s3,780 <printf+0xbc>
 76c:	05478863          	beq	a5,s4,7bc <printf+0xf8>
 770:	0007879b          	sext.w	a5,a5
 774:	00f4a023          	sw	a5,0(s1)
 778:	00140513          	addi	a0,s0,1
 77c:	fbdff06f          	j	738 <printf+0x74>
 780:	00813783          	ld	a5,8(sp)
 784:	0007a503          	lw	a0,0(a5)
 788:	00878793          	addi	a5,a5,8
 78c:	00f13423          	sd	a5,8(sp)
 790:	00050863          	beqz	a0,7a0 <printf+0xdc>
 794:	c5dff0ef          	jal	ra,3f0 <uart_send_integer.part.0>
 798:	00140513          	addi	a0,s0,1
 79c:	f9dff06f          	j	738 <printf+0x74>
 7a0:	0e0007b7          	lui	a5,0xe000
 7a4:	10378793          	addi	a5,a5,259 # e000103 <count.1+0xdfdfc9f>
 7a8:	00479793          	slli	a5,a5,0x4
 7ac:	03000713          	li	a4,48
 7b0:	00e7a023          	sw	a4,0(a5)
 7b4:	00140513          	addi	a0,s0,1
 7b8:	f81ff06f          	j	738 <printf+0x74>
 7bc:	00813783          	ld	a5,8(sp)
 7c0:	0007b703          	ld	a4,0(a5)
 7c4:	00878793          	addi	a5,a5,8
 7c8:	00f13423          	sd	a5,8(sp)
 7cc:	00074783          	lbu	a5,0(a4)
 7d0:	fa0784e3          	beqz	a5,778 <printf+0xb4>
 7d4:	0e0006b7          	lui	a3,0xe000
 7d8:	10368693          	addi	a3,a3,259 # e000103 <count.1+0xdfdfc9f>
 7dc:	00469693          	slli	a3,a3,0x4
 7e0:	0007879b          	sext.w	a5,a5
 7e4:	00170713          	addi	a4,a4,1
 7e8:	00f6a023          	sw	a5,0(a3)
 7ec:	00074783          	lbu	a5,0(a4)
 7f0:	fe0798e3          	bnez	a5,7e0 <printf+0x11c>
 7f4:	00140513          	addi	a0,s0,1
 7f8:	f41ff06f          	j	738 <printf+0x74>
 7fc:	00050463          	beqz	a0,804 <printf+0x140>
 800:	0000006f          	j	800 <printf+0x13c>
 804:	00008067          	ret

0000000000000808 <exit>:
 808:	0000006f          	j	808 <exit>

Disassembly of section .text.startup:

000000000000080c <main>:
 80c:	0e0006b7          	lui	a3,0xe000
 810:	10368693          	addi	a3,a3,259 # e000103 <count.1+0xdfdfc9f>
 814:	04900793          	li	a5,73
 818:	00000717          	auipc	a4,0x0
 81c:	05070713          	addi	a4,a4,80 # 868 <main+0x5c>
 820:	00469693          	slli	a3,a3,0x4
 824:	0007879b          	sext.w	a5,a5
 828:	00170713          	addi	a4,a4,1
 82c:	00f6a023          	sw	a5,0(a3)
 830:	00074783          	lbu	a5,0(a4)
 834:	fe0798e3          	bnez	a5,824 <main+0x18>
 838:	fff00513          	li	a0,-1
 83c:	00008067          	ret
