
mt-mask-sfilter.riscv:     file format elf64-littleriscv


Disassembly of section .text.init:

0000000000000000 <_start>:
   0:	00001197          	auipc	gp,0x1
   4:	44818193          	addi	gp,gp,1096 # 1448 <_gp>
   8:	00000093          	li	ra,0
   c:	00000113          	li	sp,0
  10:	00000193          	li	gp,0
  14:	00000213          	li	tp,0
  18:	00000293          	li	t0,0
  1c:	00000313          	li	t1,0
  20:	00000393          	li	t2,0
  24:	00000413          	li	s0,0
  28:	00000493          	li	s1,0
  2c:	00000513          	li	a0,0
  30:	00000593          	li	a1,0
  34:	00000613          	li	a2,0
  38:	00000693          	li	a3,0
  3c:	00000713          	li	a4,0
  40:	00000793          	li	a5,0
  44:	00000813          	li	a6,0
  48:	00000893          	li	a7,0
  4c:	00000913          	li	s2,0
  50:	00000993          	li	s3,0
  54:	00000a13          	li	s4,0
  58:	00000a93          	li	s5,0
  5c:	00000b13          	li	s6,0
  60:	00000b93          	li	s7,0
  64:	00000c13          	li	s8,0
  68:	00000c93          	li	s9,0
  6c:	00000d13          	li	s10,0
  70:	00000d93          	li	s11,0
  74:	00000e13          	li	t3,0
  78:	00000e93          	li	t4,0
  7c:	00000f13          	li	t5,0
  80:	00000f93          	li	t6,0
  84:	00100293          	li	t0,1
  88:	01f29293          	slli	t0,t0,0x1f
  8c:	0202d063          	bgez	t0,ac <_start+0xac>
  90:	00100513          	li	a0,1
  94:	000e0337          	lui	t1,0xe0
  98:	0013031b          	addiw	t1,t1,1
  9c:	00c31313          	slli	t1,t1,0xc
  a0:	03030313          	addi	t1,t1,48 # e0030 <count.1+0xd13d4>
  a4:	00a32023          	sw	a0,0(t1)
  a8:	fe9ff06f          	j	90 <_start+0x90>
  ac:	00000297          	auipc	t0,0x0
  b0:	08c28293          	addi	t0,t0,140 # 138 <trap_entry>
  b4:	30529073          	csrw	mtvec,t0
  b8:	f1402573          	csrr	a0,mhartid
  bc:	0000b617          	auipc	a2,0xb
  c0:	b9460613          	addi	a2,a2,-1132 # ac50 <hart_init_sync>
  c4:	00100313          	li	t1,1
  c8:	00660023          	sb	t1,0(a2)
  cc:	0ff0000f          	fence
  d0:	02051863          	bnez	a0,100 <sync_all_harts>
  d4:	0000bf17          	auipc	t5,0xb
  d8:	b84f0f13          	addi	t5,t5,-1148 # ac58 <results_data.2>
  dc:	0000ff97          	auipc	t6,0xf
  e0:	b7cf8f93          	addi	t6,t6,-1156 # ec58 <sense.0>

00000000000000e4 <clear_bss>:
  e4:	01ff5863          	bge	t5,t6,f4 <finish_bss>
  e8:	000f2023          	sw	zero,0(t5)
  ec:	004f0f13          	addi	t5,t5,4
  f0:	ff5ff06f          	j	e4 <clear_bss>

00000000000000f4 <finish_bss>:
  f4:	0000b597          	auipc	a1,0xb
  f8:	b5c58593          	addi	a1,a1,-1188 # ac50 <hart_init_sync>
  fc:	0005a023          	sw	zero,0(a1)

0000000000000100 <sync_all_harts>:
 100:	0000b597          	auipc	a1,0xb
 104:	b5058593          	addi	a1,a1,-1200 # ac50 <hart_init_sync>
 108:	0005a603          	lw	a2,0(a1)
 10c:	fe061ae3          	bnez	a2,100 <sync_all_harts>
 110:	00200593          	li	a1,2
 114:	00100e13          	li	t3,1
 118:	012e1393          	slli	t2,t3,0x12
 11c:	027502b3          	mul	t0,a0,t2
 120:	10040337          	lui	t1,0x10040
 124:	00530333          	add	t1,t1,t0
 128:	00030213          	mv	tp,t1
 12c:	00730333          	add	t1,t1,t2
 130:	00030113          	mv	sp,t1
 134:	188000ef          	jal	ra,2bc <thread_entry>

0000000000000138 <trap_entry>:
 138:	ef010113          	addi	sp,sp,-272
 13c:	00113423          	sd	ra,8(sp)
 140:	00213823          	sd	sp,16(sp)
 144:	00313c23          	sd	gp,24(sp)
 148:	02413023          	sd	tp,32(sp)
 14c:	02513423          	sd	t0,40(sp)
 150:	02613823          	sd	t1,48(sp)
 154:	02713c23          	sd	t2,56(sp)
 158:	04813023          	sd	s0,64(sp)
 15c:	04913423          	sd	s1,72(sp)
 160:	04a13823          	sd	a0,80(sp)
 164:	04b13c23          	sd	a1,88(sp)
 168:	06c13023          	sd	a2,96(sp)
 16c:	06d13423          	sd	a3,104(sp)
 170:	06e13823          	sd	a4,112(sp)
 174:	06f13c23          	sd	a5,120(sp)
 178:	09013023          	sd	a6,128(sp)
 17c:	09113423          	sd	a7,136(sp)
 180:	09213823          	sd	s2,144(sp)
 184:	09313c23          	sd	s3,152(sp)
 188:	0b413023          	sd	s4,160(sp)
 18c:	0b513423          	sd	s5,168(sp)
 190:	0b613823          	sd	s6,176(sp)
 194:	0b713c23          	sd	s7,184(sp)
 198:	0d813023          	sd	s8,192(sp)
 19c:	0d913423          	sd	s9,200(sp)
 1a0:	0da13823          	sd	s10,208(sp)
 1a4:	0db13c23          	sd	s11,216(sp)
 1a8:	0fc13023          	sd	t3,224(sp)
 1ac:	0fd13423          	sd	t4,232(sp)
 1b0:	0fe13823          	sd	t5,240(sp)
 1b4:	0ff13c23          	sd	t6,248(sp)
 1b8:	34202573          	csrr	a0,mcause
 1bc:	341025f3          	csrr	a1,mepc
 1c0:	00010613          	mv	a2,sp
 1c4:	0f8000ef          	jal	ra,2bc <thread_entry>
 1c8:	34151073          	csrw	mepc,a0
 1cc:	000022b7          	lui	t0,0x2
 1d0:	8002829b          	addiw	t0,t0,-2048
 1d4:	3002a073          	csrs	mstatus,t0
 1d8:	00813083          	ld	ra,8(sp)
 1dc:	01013103          	ld	sp,16(sp)
 1e0:	01813183          	ld	gp,24(sp)
 1e4:	02013203          	ld	tp,32(sp)
 1e8:	02813283          	ld	t0,40(sp)
 1ec:	03013303          	ld	t1,48(sp)
 1f0:	03813383          	ld	t2,56(sp)
 1f4:	04013403          	ld	s0,64(sp)
 1f8:	04813483          	ld	s1,72(sp)
 1fc:	05013503          	ld	a0,80(sp)
 200:	05813583          	ld	a1,88(sp)
 204:	06013603          	ld	a2,96(sp)
 208:	06813683          	ld	a3,104(sp)
 20c:	07013703          	ld	a4,112(sp)
 210:	07813783          	ld	a5,120(sp)
 214:	08013803          	ld	a6,128(sp)
 218:	08813883          	ld	a7,136(sp)
 21c:	09013903          	ld	s2,144(sp)
 220:	09813983          	ld	s3,152(sp)
 224:	0a013a03          	ld	s4,160(sp)
 228:	0a813a83          	ld	s5,168(sp)
 22c:	0b013b03          	ld	s6,176(sp)
 230:	0b813b83          	ld	s7,184(sp)
 234:	0c013c03          	ld	s8,192(sp)
 238:	0c813c83          	ld	s9,200(sp)
 23c:	0d013d03          	ld	s10,208(sp)
 240:	0d813d83          	ld	s11,216(sp)
 244:	0e013e03          	ld	t3,224(sp)
 248:	0e813e83          	ld	t4,232(sp)
 24c:	0f013f03          	ld	t5,240(sp)
 250:	0f813f83          	ld	t6,248(sp)
 254:	11010113          	addi	sp,sp,272
 258:	30200073          	mret

Disassembly of section .text:

000000000000025c <barrier>:
 25c:	0ff0000f          	fence
 260:	00022703          	lw	a4,0(tp) # 0 <_start>
 264:	00100693          	li	a3,1
 268:	00173713          	seqz	a4,a4
 26c:	00e22023          	sw	a4,0(tp) # 0 <_start>
 270:	0000f717          	auipc	a4,0xf
 274:	9ec70713          	addi	a4,a4,-1556 # ec5c <count.1>
 278:	06d7272f          	amoadd.w.aqrl	a4,a3,(a4)
 27c:	0007071b          	sext.w	a4,a4
 280:	fff5051b          	addiw	a0,a0,-1
 284:	02e50063          	beq	a0,a4,2a4 <barrier+0x48>
 288:	00022683          	lw	a3,0(tp) # 0 <_start>
 28c:	0000f717          	auipc	a4,0xf
 290:	9cc70713          	addi	a4,a4,-1588 # ec58 <sense.0>
 294:	00072783          	lw	a5,0(a4)
 298:	fed79ee3          	bne	a5,a3,294 <barrier+0x38>
 29c:	0ff0000f          	fence
 2a0:	00008067          	ret
 2a4:	00022783          	lw	a5,0(tp) # 0 <_start>
 2a8:	0000f717          	auipc	a4,0xf
 2ac:	9a072a23          	sw	zero,-1612(a4) # ec5c <count.1>
 2b0:	0000f717          	auipc	a4,0xf
 2b4:	9af72423          	sw	a5,-1624(a4) # ec58 <sense.0>
 2b8:	fe5ff06f          	j	29c <barrier+0x40>

00000000000002bc <thread_entry>:
 2bc:	fa010113          	addi	sp,sp,-96
 2c0:	00100793          	li	a5,1
 2c4:	02f13823          	sd	a5,48(sp)
 2c8:	02f13423          	sd	a5,40(sp)
 2cc:	02f13023          	sd	a5,32(sp)
 2d0:	00f13c23          	sd	a5,24(sp)
 2d4:	00f13823          	sd	a5,16(sp)
 2d8:	00f13423          	sd	a5,8(sp)
 2dc:	00f13023          	sd	a5,0(sp)
 2e0:	00100893          	li	a7,1
 2e4:	00100813          	li	a6,1
 2e8:	04000793          	li	a5,64
 2ec:	00005717          	auipc	a4,0x5
 2f0:	96470713          	addi	a4,a4,-1692 # 4c50 <mask>
 2f4:	0000b697          	auipc	a3,0xb
 2f8:	96468693          	addi	a3,a3,-1692 # ac58 <results_data.2>
 2fc:	00007617          	auipc	a2,0x7
 300:	95460613          	addi	a2,a2,-1708 # 6c50 <input>
 304:	04813823          	sd	s0,80(sp)
 308:	04913423          	sd	s1,72(sp)
 30c:	00050413          	mv	s0,a0
 310:	04113c23          	sd	ra,88(sp)
 314:	00058493          	mv	s1,a1
 318:	09c000ef          	jal	ra,3b4 <mask_sfilter>
 31c:	00048513          	mv	a0,s1
 320:	f3dff0ef          	jal	ra,25c <barrier>
 324:	00040663          	beqz	s0,330 <thread_entry+0x74>
 328:	00200513          	li	a0,2
 32c:	089000ef          	jal	ra,bb4 <exit>
 330:	00001517          	auipc	a0,0x1
 334:	8b050513          	addi	a0,a0,-1872 # be0 <main+0x28>
 338:	3b8000ef          	jal	ra,6f0 <uart_send_string>
 33c:	0000b717          	auipc	a4,0xb
 340:	91c70713          	addi	a4,a4,-1764 # ac58 <results_data.2>
 344:	00001797          	auipc	a5,0x1
 348:	90c78793          	addi	a5,a5,-1780 # c50 <verify_data>
 34c:	00000513          	li	a0,0
 350:	000018b7          	lui	a7,0x1
 354:	0180006f          	j	36c <thread_entry+0xb0>
 358:	0025051b          	addiw	a0,a0,2
 35c:	03069663          	bne	a3,a6,388 <thread_entry+0xcc>
 360:	00870713          	addi	a4,a4,8
 364:	00878793          	addi	a5,a5,8
 368:	05150263          	beq	a0,a7,3ac <thread_entry+0xf0>
 36c:	00072603          	lw	a2,0(a4)
 370:	0007a583          	lw	a1,0(a5)
 374:	00472683          	lw	a3,4(a4)
 378:	0047a803          	lw	a6,4(a5)
 37c:	0006869b          	sext.w	a3,a3
 380:	fcc58ce3          	beq	a1,a2,358 <thread_entry+0x9c>
 384:	0015051b          	addiw	a0,a0,1
 388:	3ac000ef          	jal	ra,734 <uart_send_integer>
 38c:	00001517          	auipc	a0,0x1
 390:	87c50513          	addi	a0,a0,-1924 # c08 <main+0x50>
 394:	35c000ef          	jal	ra,6f0 <uart_send_string>
 398:	0000b597          	auipc	a1,0xb
 39c:	8c058593          	addi	a1,a1,-1856 # ac58 <results_data.2>
 3a0:	04000513          	li	a0,64
 3a4:	3c8000ef          	jal	ra,76c <syscall_print_matrix>
 3a8:	f81ff06f          	j	328 <thread_entry+0x6c>
 3ac:	00000513          	li	a0,0
 3b0:	fd9ff06f          	j	388 <thread_entry+0xcc>

00000000000003b4 <mask_sfilter>:
 3b4:	02b7c5bb          	divw	a1,a5,a1
 3b8:	f4010113          	addi	sp,sp,-192
 3bc:	0c012303          	lw	t1,192(sp)
 3c0:	0a913823          	sd	s1,176(sp)
 3c4:	07b13023          	sd	s11,96(sp)
 3c8:	00613823          	sd	t1,16(sp)
 3cc:	0c812303          	lw	t1,200(sp)
 3d0:	01013023          	sd	a6,0(sp)
 3d4:	01113423          	sd	a7,8(sp)
 3d8:	00613c23          	sd	t1,24(sp)
 3dc:	0d012303          	lw	t1,208(sp)
 3e0:	0f012d83          	lw	s11,240(sp)
 3e4:	02613023          	sd	t1,32(sp)
 3e8:	0d812303          	lw	t1,216(sp)
 3ec:	02613423          	sd	t1,40(sp)
 3f0:	0e012303          	lw	t1,224(sp)
 3f4:	02613823          	sd	t1,48(sp)
 3f8:	0e812303          	lw	t1,232(sp)
 3fc:	02613c23          	sd	t1,56(sp)
 400:	02a584bb          	mulw	s1,a1,a0
 404:	0095883b          	addw	a6,a1,s1
 408:	0904de63          	bge	s1,a6,4a4 <mask_sfilter+0xf0>
 40c:	09613423          	sd	s6,136(sp)
 410:	00070313          	mv	t1,a4
 414:	fff48b1b          	addiw	s6,s1,-1
 418:	0014871b          	addiw	a4,s1,1
 41c:	fff7859b          	addiw	a1,a5,-1
 420:	02fb0b3b          	mulw	s6,s6,a5
 424:	0b213423          	sd	s2,168(sp)
 428:	09713023          	sd	s7,128(sp)
 42c:	00078b9b          	sext.w	s7,a5
 430:	0a813c23          	sd	s0,184(sp)
 434:	0b313023          	sd	s3,160(sp)
 438:	09413c23          	sd	s4,152(sp)
 43c:	09513823          	sd	s5,144(sp)
 440:	07813c23          	sd	s8,120(sp)
 444:	07913823          	sd	s9,112(sp)
 448:	02f4893b          	mulw	s2,s1,a5
 44c:	07a13423          	sd	s10,104(sp)
 450:	00080413          	mv	s0,a6
 454:	00058f13          	mv	t5,a1
 458:	05b13023          	sd	s11,64(sp)
 45c:	02f707bb          	mulw	a5,a4,a5
 460:	01e48463          	beq	s1,t5,468 <mask_sfilter+0xb4>
 464:	04049863          	bnez	s1,4b4 <mask_sfilter+0x100>
 468:	0014849b          	addiw	s1,s1,1
 46c:	0179093b          	addw	s2,s2,s7
 470:	016b8b3b          	addw	s6,s7,s6
 474:	00fb87bb          	addw	a5,s7,a5
 478:	fe8494e3          	bne	s1,s0,460 <mask_sfilter+0xac>
 47c:	0b813403          	ld	s0,184(sp)
 480:	0a813903          	ld	s2,168(sp)
 484:	0a013983          	ld	s3,160(sp)
 488:	09813a03          	ld	s4,152(sp)
 48c:	09013a83          	ld	s5,144(sp)
 490:	08813b03          	ld	s6,136(sp)
 494:	08013b83          	ld	s7,128(sp)
 498:	07813c03          	ld	s8,120(sp)
 49c:	07013c83          	ld	s9,112(sp)
 4a0:	06813d03          	ld	s10,104(sp)
 4a4:	0b013483          	ld	s1,176(sp)
 4a8:	06013d83          	ld	s11,96(sp)
 4ac:	0c010113          	addi	sp,sp,192
 4b0:	00008067          	ret
 4b4:	00100713          	li	a4,1
 4b8:	fbe758e3          	bge	a4,t5,468 <mask_sfilter+0xb4>
 4bc:	00191393          	slli	t2,s2,0x1
 4c0:	00190f93          	addi	t6,s2,1
 4c4:	00290c1b          	addiw	s8,s2,2
 4c8:	00178a9b          	addiw	s5,a5,1
 4cc:	00278a1b          	addiw	s4,a5,2
 4d0:	007303b3          	add	t2,t1,t2
 4d4:	002f9f93          	slli	t6,t6,0x2
 4d8:	000b0713          	mv	a4,s6
 4dc:	41690dbb          	subw	s11,s2,s6
 4e0:	416c0c3b          	subw	s8,s8,s6
 4e4:	41678d3b          	subw	s10,a5,s6
 4e8:	416a8abb          	subw	s5,s5,s6
 4ec:	416a0a3b          	subw	s4,s4,s6
 4f0:	ffe90c9b          	addiw	s9,s2,-2
 4f4:	04913423          	sd	s1,72(sp)
 4f8:	04813823          	sd	s0,80(sp)
 4fc:	05e13c23          	sd	t5,88(sp)
 500:	01f602b3          	add	t0,a2,t6
 504:	00239983          	lh	s3,2(t2)
 508:	00070f1b          	sext.w	t5,a4
 50c:	00270e9b          	addiw	t4,a4,2
 510:	00ed8e3b          	addw	t3,s11,a4
 514:	00ec08bb          	addw	a7,s8,a4
 518:	00ed083b          	addw	a6,s10,a4
 51c:	00ea853b          	addw	a0,s5,a4
 520:	00ea05bb          	addw	a1,s4,a4
 524:	0002a403          	lw	s0,0(t0) # 2000 <_gp+0xbb8>
 528:	0017029b          	addiw	t0,a4,1
 52c:	002f1f13          	slli	t5,t5,0x2
 530:	002e9e93          	slli	t4,t4,0x2
 534:	002e1e13          	slli	t3,t3,0x2
 538:	00289893          	slli	a7,a7,0x2
 53c:	00281813          	slli	a6,a6,0x2
 540:	00251513          	slli	a0,a0,0x2
 544:	00259593          	slli	a1,a1,0x2
 548:	00028713          	mv	a4,t0
 54c:	00229293          	slli	t0,t0,0x2
 550:	01e60f33          	add	t5,a2,t5
 554:	01d60eb3          	add	t4,a2,t4
 558:	01c60e33          	add	t3,a2,t3
 55c:	011608b3          	add	a7,a2,a7
 560:	01060833          	add	a6,a2,a6
 564:	00a60533          	add	a0,a2,a0
 568:	00b605b3          	add	a1,a2,a1
 56c:	01f684b3          	add	s1,a3,t6
 570:	005602b3          	add	t0,a2,t0
 574:	08098663          	beqz	s3,600 <mask_sfilter+0x24c>
 578:	00813983          	ld	s3,8(sp)
 57c:	0002a283          	lw	t0,0(t0)
 580:	000f2f03          	lw	t5,0(t5)
 584:	000eae83          	lw	t4,0(t4)
 588:	033282bb          	mulw	t0,t0,s3
 58c:	00013983          	ld	s3,0(sp)
 590:	000e2e03          	lw	t3,0(t3)
 594:	0008a883          	lw	a7,0(a7) # 1000 <verify_data+0x3b0>
 598:	00082803          	lw	a6,0(a6)
 59c:	00052503          	lw	a0,0(a0)
 5a0:	0005a583          	lw	a1,0(a1)
 5a4:	033f0f3b          	mulw	t5,t5,s3
 5a8:	01013983          	ld	s3,16(sp)
 5ac:	01e28f3b          	addw	t5,t0,t5
 5b0:	01813283          	ld	t0,24(sp)
 5b4:	033e8ebb          	mulw	t4,t4,s3
 5b8:	025e0e3b          	mulw	t3,t3,t0
 5bc:	01df0f3b          	addw	t5,t5,t4
 5c0:	02013e83          	ld	t4,32(sp)
 5c4:	01cf0f3b          	addw	t5,t5,t3
 5c8:	02813e03          	ld	t3,40(sp)
 5cc:	028e843b          	mulw	s0,t4,s0
 5d0:	03c888bb          	mulw	a7,a7,t3
 5d4:	03013e03          	ld	t3,48(sp)
 5d8:	008f0f3b          	addw	t5,t5,s0
 5dc:	03c8083b          	mulw	a6,a6,t3
 5e0:	011f0f3b          	addw	t5,t5,a7
 5e4:	03813883          	ld	a7,56(sp)
 5e8:	010f0f3b          	addw	t5,t5,a6
 5ec:	04013803          	ld	a6,64(sp)
 5f0:	0315053b          	mulw	a0,a0,a7
 5f4:	030585bb          	mulw	a1,a1,a6
 5f8:	00af0f3b          	addw	t5,t5,a0
 5fc:	00bf043b          	addw	s0,t5,a1
 600:	0084a023          	sw	s0,0(s1)
 604:	00238393          	addi	t2,t2,2
 608:	004f8f93          	addi	t6,t6,4
 60c:	eeec9ae3          	bne	s9,a4,500 <mask_sfilter+0x14c>
 610:	04813483          	ld	s1,72(sp)
 614:	05013403          	ld	s0,80(sp)
 618:	05813f03          	ld	t5,88(sp)
 61c:	e4dff06f          	j	468 <mask_sfilter+0xb4>

0000000000000620 <uart_send_integer.part.0>:
 620:	08054c63          	bltz	a0,6b8 <uart_send_integer.part.0+0x98>
 624:	0c050463          	beqz	a0,6ec <uart_send_integer.part.0+0xcc>
 628:	ff010113          	addi	sp,sp,-16
 62c:	00010693          	mv	a3,sp
 630:	00068793          	mv	a5,a3
 634:	00a00613          	li	a2,10
 638:	02c5673b          	remw	a4,a0,a2
 63c:	00078593          	mv	a1,a5
 640:	00178793          	addi	a5,a5,1
 644:	02c5453b          	divw	a0,a0,a2
 648:	0307071b          	addiw	a4,a4,48
 64c:	fee78fa3          	sb	a4,-1(a5)
 650:	fe0514e3          	bnez	a0,638 <uart_send_integer.part.0+0x18>
 654:	40d587bb          	subw	a5,a1,a3
 658:	0017861b          	addiw	a2,a5,1
 65c:	fff6079b          	addiw	a5,a2,-1
 660:	fff68513          	addi	a0,a3,-1
 664:	38000737          	lui	a4,0x38000
 668:	0e0005b7          	lui	a1,0xe000
 66c:	02079793          	slli	a5,a5,0x20
 670:	00c50533          	add	a0,a0,a2
 674:	0207d793          	srli	a5,a5,0x20
 678:	40b70713          	addi	a4,a4,1035 # 3800040b <count.1+0x37ff17af>
 67c:	10358593          	addi	a1,a1,259 # e000103 <count.1+0xdff14a7>
 680:	00c686b3          	add	a3,a3,a2
 684:	40f50533          	sub	a0,a0,a5
 688:	00271713          	slli	a4,a4,0x2
 68c:	00459593          	slli	a1,a1,0x4
 690:	fff6c603          	lbu	a2,-1(a3)
 694:	00072783          	lw	a5,0(a4)
 698:	0107f793          	andi	a5,a5,16
 69c:	fe079ce3          	bnez	a5,694 <uart_send_integer.part.0+0x74>
 6a0:	0006079b          	sext.w	a5,a2
 6a4:	00f5a023          	sw	a5,0(a1)
 6a8:	fff68693          	addi	a3,a3,-1
 6ac:	fea692e3          	bne	a3,a0,690 <uart_send_integer.part.0+0x70>
 6b0:	01010113          	addi	sp,sp,16
 6b4:	00008067          	ret
 6b8:	38000737          	lui	a4,0x38000
 6bc:	40b70713          	addi	a4,a4,1035 # 3800040b <count.1+0x37ff17af>
 6c0:	00271713          	slli	a4,a4,0x2
 6c4:	00072783          	lw	a5,0(a4)
 6c8:	0107f793          	andi	a5,a5,16
 6cc:	fe079ce3          	bnez	a5,6c4 <uart_send_integer.part.0+0xa4>
 6d0:	0e0007b7          	lui	a5,0xe000
 6d4:	10378793          	addi	a5,a5,259 # e000103 <count.1+0xdff14a7>
 6d8:	00479793          	slli	a5,a5,0x4
 6dc:	02d00713          	li	a4,45
 6e0:	00e7a023          	sw	a4,0(a5)
 6e4:	40a0053b          	negw	a0,a0
 6e8:	f41ff06f          	j	628 <uart_send_integer.part.0+0x8>
 6ec:	00008067          	ret

00000000000006f0 <uart_send_string>:
 6f0:	00054683          	lbu	a3,0(a0)
 6f4:	02068e63          	beqz	a3,730 <uart_send_string+0x40>
 6f8:	38000737          	lui	a4,0x38000
 6fc:	0e000637          	lui	a2,0xe000
 700:	40b70713          	addi	a4,a4,1035 # 3800040b <count.1+0x37ff17af>
 704:	10360613          	addi	a2,a2,259 # e000103 <count.1+0xdff14a7>
 708:	00271713          	slli	a4,a4,0x2
 70c:	00461613          	slli	a2,a2,0x4
 710:	00150513          	addi	a0,a0,1
 714:	00072783          	lw	a5,0(a4)
 718:	0107f793          	andi	a5,a5,16
 71c:	fe079ce3          	bnez	a5,714 <uart_send_string+0x24>
 720:	0006869b          	sext.w	a3,a3
 724:	00d62023          	sw	a3,0(a2)
 728:	00054683          	lbu	a3,0(a0)
 72c:	fe0692e3          	bnez	a3,710 <uart_send_string+0x20>
 730:	00008067          	ret

0000000000000734 <uart_send_integer>:
 734:	00050463          	beqz	a0,73c <uart_send_integer+0x8>
 738:	ee9ff06f          	j	620 <uart_send_integer.part.0>
 73c:	38000737          	lui	a4,0x38000
 740:	40b70713          	addi	a4,a4,1035 # 3800040b <count.1+0x37ff17af>
 744:	00271713          	slli	a4,a4,0x2
 748:	00072783          	lw	a5,0(a4)
 74c:	0107f793          	andi	a5,a5,16
 750:	fe079ce3          	bnez	a5,748 <uart_send_integer+0x14>
 754:	0e0007b7          	lui	a5,0xe000
 758:	10378793          	addi	a5,a5,259 # e000103 <count.1+0xdff14a7>
 75c:	00479793          	slli	a5,a5,0x4
 760:	03000713          	li	a4,48
 764:	00e7a023          	sw	a4,0(a5)
 768:	00008067          	ret

000000000000076c <syscall_print_matrix>:
 76c:	38000737          	lui	a4,0x38000
 770:	0e0006b7          	lui	a3,0xe000
 774:	fa010113          	addi	sp,sp,-96
 778:	40b70713          	addi	a4,a4,1035 # 3800040b <count.1+0x37ff17af>
 77c:	10368693          	addi	a3,a3,259 # e000103 <count.1+0xdff14a7>
 780:	05213023          	sd	s2,64(sp)
 784:	04113c23          	sd	ra,88(sp)
 788:	00050913          	mv	s2,a0
 78c:	05200613          	li	a2,82
 790:	00000517          	auipc	a0,0x0
 794:	48050513          	addi	a0,a0,1152 # c10 <main+0x58>
 798:	00271713          	slli	a4,a4,0x2
 79c:	00469693          	slli	a3,a3,0x4
 7a0:	00150513          	addi	a0,a0,1
 7a4:	00072783          	lw	a5,0(a4)
 7a8:	0107f793          	andi	a5,a5,16
 7ac:	fe079ce3          	bnez	a5,7a4 <syscall_print_matrix+0x38>
 7b0:	0006061b          	sext.w	a2,a2
 7b4:	00c6a023          	sw	a2,0(a3)
 7b8:	00054603          	lbu	a2,0(a0)
 7bc:	fe0612e3          	bnez	a2,7a0 <syscall_print_matrix+0x34>
 7c0:	0d205063          	blez	s2,880 <syscall_print_matrix+0x114>
 7c4:	04813823          	sd	s0,80(sp)
 7c8:	01713c23          	sd	s7,24(sp)
 7cc:	38000437          	lui	s0,0x38000
 7d0:	0e000bb7          	lui	s7,0xe000
 7d4:	03313c23          	sd	s3,56(sp)
 7d8:	40b40413          	addi	s0,s0,1035 # 3800040b <count.1+0x37ff17af>
 7dc:	00291993          	slli	s3,s2,0x2
 7e0:	103b8b93          	addi	s7,s7,259 # e000103 <count.1+0xdff14a7>
 7e4:	03413823          	sd	s4,48(sp)
 7e8:	03513423          	sd	s5,40(sp)
 7ec:	03613023          	sd	s6,32(sp)
 7f0:	01813823          	sd	s8,16(sp)
 7f4:	01913423          	sd	s9,8(sp)
 7f8:	04913423          	sd	s1,72(sp)
 7fc:	01358b33          	add	s6,a1,s3
 800:	00000c93          	li	s9,0
 804:	00241413          	slli	s0,s0,0x2
 808:	004b9b93          	slli	s7,s7,0x4
 80c:	03000a93          	li	s5,48
 810:	02000c13          	li	s8,32
 814:	00a00a13          	li	s4,10
 818:	413b04b3          	sub	s1,s6,s3
 81c:	0004a503          	lw	a0,0(s1)
 820:	08050e63          	beqz	a0,8bc <syscall_print_matrix+0x150>
 824:	dfdff0ef          	jal	ra,620 <uart_send_integer.part.0>
 828:	00042783          	lw	a5,0(s0)
 82c:	0107f793          	andi	a5,a5,16
 830:	fe079ce3          	bnez	a5,828 <syscall_print_matrix+0xbc>
 834:	018ba023          	sw	s8,0(s7)
 838:	00448493          	addi	s1,s1,4
 83c:	fe9b10e3          	bne	s6,s1,81c <syscall_print_matrix+0xb0>
 840:	00042783          	lw	a5,0(s0)
 844:	0107f793          	andi	a5,a5,16
 848:	fe079ce3          	bnez	a5,840 <syscall_print_matrix+0xd4>
 84c:	014ba023          	sw	s4,0(s7)
 850:	001c8c9b          	addiw	s9,s9,1
 854:	013b0b33          	add	s6,s6,s3
 858:	fd9910e3          	bne	s2,s9,818 <syscall_print_matrix+0xac>
 85c:	05013403          	ld	s0,80(sp)
 860:	04813483          	ld	s1,72(sp)
 864:	03813983          	ld	s3,56(sp)
 868:	03013a03          	ld	s4,48(sp)
 86c:	02813a83          	ld	s5,40(sp)
 870:	02013b03          	ld	s6,32(sp)
 874:	01813b83          	ld	s7,24(sp)
 878:	01013c03          	ld	s8,16(sp)
 87c:	00813c83          	ld	s9,8(sp)
 880:	38000737          	lui	a4,0x38000
 884:	40b70713          	addi	a4,a4,1035 # 3800040b <count.1+0x37ff17af>
 888:	00271713          	slli	a4,a4,0x2
 88c:	00072783          	lw	a5,0(a4)
 890:	0107f793          	andi	a5,a5,16
 894:	fe079ce3          	bnez	a5,88c <syscall_print_matrix+0x120>
 898:	0e0007b7          	lui	a5,0xe000
 89c:	05813083          	ld	ra,88(sp)
 8a0:	10378793          	addi	a5,a5,259 # e000103 <count.1+0xdff14a7>
 8a4:	00479793          	slli	a5,a5,0x4
 8a8:	00a00713          	li	a4,10
 8ac:	00e7a023          	sw	a4,0(a5)
 8b0:	04013903          	ld	s2,64(sp)
 8b4:	06010113          	addi	sp,sp,96
 8b8:	00008067          	ret
 8bc:	00042783          	lw	a5,0(s0)
 8c0:	0107f793          	andi	a5,a5,16
 8c4:	fe079ce3          	bnez	a5,8bc <syscall_print_matrix+0x150>
 8c8:	015ba023          	sw	s5,0(s7)
 8cc:	f5dff06f          	j	828 <syscall_print_matrix+0xbc>

00000000000008d0 <syscall_print_array>:
 8d0:	38000737          	lui	a4,0x38000
 8d4:	0e000837          	lui	a6,0xe000
 8d8:	40b70713          	addi	a4,a4,1035 # 3800040b <count.1+0x37ff17af>
 8dc:	10380813          	addi	a6,a6,259 # e000103 <count.1+0xdff14a7>
 8e0:	00050693          	mv	a3,a0
 8e4:	05200613          	li	a2,82
 8e8:	00000517          	auipc	a0,0x0
 8ec:	33850513          	addi	a0,a0,824 # c20 <main+0x68>
 8f0:	00271713          	slli	a4,a4,0x2
 8f4:	00481813          	slli	a6,a6,0x4
 8f8:	00150513          	addi	a0,a0,1
 8fc:	00072783          	lw	a5,0(a4)
 900:	0107f793          	andi	a5,a5,16
 904:	fe079ce3          	bnez	a5,8fc <syscall_print_array+0x2c>
 908:	0006061b          	sext.w	a2,a2
 90c:	00c82023          	sw	a2,0(a6)
 910:	00054603          	lbu	a2,0(a0)
 914:	fe0612e3          	bnez	a2,8f8 <syscall_print_array+0x28>
 918:	0cd05c63          	blez	a3,9f0 <syscall_print_array+0x120>
 91c:	fc010113          	addi	sp,sp,-64
 920:	02813823          	sd	s0,48(sp)
 924:	03213023          	sd	s2,32(sp)
 928:	38000437          	lui	s0,0x38000
 92c:	0e000937          	lui	s2,0xe000
 930:	00269693          	slli	a3,a3,0x2
 934:	40b40413          	addi	s0,s0,1035 # 3800040b <count.1+0x37ff17af>
 938:	10390913          	addi	s2,s2,259 # e000103 <count.1+0xdff14a7>
 93c:	02913423          	sd	s1,40(sp)
 940:	01313c23          	sd	s3,24(sp)
 944:	01413823          	sd	s4,16(sp)
 948:	01513423          	sd	s5,8(sp)
 94c:	02113c23          	sd	ra,56(sp)
 950:	00058493          	mv	s1,a1
 954:	00d589b3          	add	s3,a1,a3
 958:	00241413          	slli	s0,s0,0x2
 95c:	00491913          	slli	s2,s2,0x4
 960:	03000a93          	li	s5,48
 964:	02000a13          	li	s4,32
 968:	0004a503          	lw	a0,0(s1)
 96c:	06050863          	beqz	a0,9dc <syscall_print_array+0x10c>
 970:	cb1ff0ef          	jal	ra,620 <uart_send_integer.part.0>
 974:	00042783          	lw	a5,0(s0)
 978:	0107f793          	andi	a5,a5,16
 97c:	fe079ce3          	bnez	a5,974 <syscall_print_array+0xa4>
 980:	01492023          	sw	s4,0(s2)
 984:	00448493          	addi	s1,s1,4
 988:	fe9990e3          	bne	s3,s1,968 <syscall_print_array+0x98>
 98c:	38000737          	lui	a4,0x38000
 990:	40b70713          	addi	a4,a4,1035 # 3800040b <count.1+0x37ff17af>
 994:	00271713          	slli	a4,a4,0x2
 998:	00072783          	lw	a5,0(a4)
 99c:	0107f793          	andi	a5,a5,16
 9a0:	fe079ce3          	bnez	a5,998 <syscall_print_array+0xc8>
 9a4:	0e0007b7          	lui	a5,0xe000
 9a8:	03813083          	ld	ra,56(sp)
 9ac:	03013403          	ld	s0,48(sp)
 9b0:	10378793          	addi	a5,a5,259 # e000103 <count.1+0xdff14a7>
 9b4:	00479793          	slli	a5,a5,0x4
 9b8:	00a00713          	li	a4,10
 9bc:	00e7a023          	sw	a4,0(a5)
 9c0:	02813483          	ld	s1,40(sp)
 9c4:	02013903          	ld	s2,32(sp)
 9c8:	01813983          	ld	s3,24(sp)
 9cc:	01013a03          	ld	s4,16(sp)
 9d0:	00813a83          	ld	s5,8(sp)
 9d4:	04010113          	addi	sp,sp,64
 9d8:	00008067          	ret
 9dc:	00042783          	lw	a5,0(s0)
 9e0:	0107f793          	andi	a5,a5,16
 9e4:	fe079ce3          	bnez	a5,9dc <syscall_print_array+0x10c>
 9e8:	01592023          	sw	s5,0(s2)
 9ec:	f89ff06f          	j	974 <syscall_print_array+0xa4>
 9f0:	38000737          	lui	a4,0x38000
 9f4:	40b70713          	addi	a4,a4,1035 # 3800040b <count.1+0x37ff17af>
 9f8:	00271713          	slli	a4,a4,0x2
 9fc:	00072783          	lw	a5,0(a4)
 a00:	0107f793          	andi	a5,a5,16
 a04:	fe079ce3          	bnez	a5,9fc <syscall_print_array+0x12c>
 a08:	0e0007b7          	lui	a5,0xe000
 a0c:	10378793          	addi	a5,a5,259 # e000103 <count.1+0xdff14a7>
 a10:	00479793          	slli	a5,a5,0x4
 a14:	00a00713          	li	a4,10
 a18:	00e7a023          	sw	a4,0(a5)
 a1c:	00008067          	ret

0000000000000a20 <printf>:
 a20:	f7010113          	addi	sp,sp,-144
 a24:	06f13c23          	sd	a5,120(sp)
 a28:	04113423          	sd	ra,72(sp)
 a2c:	04b13c23          	sd	a1,88(sp)
 a30:	06c13023          	sd	a2,96(sp)
 a34:	06d13423          	sd	a3,104(sp)
 a38:	06e13823          	sd	a4,112(sp)
 a3c:	09013023          	sd	a6,128(sp)
 a40:	09113423          	sd	a7,136(sp)
 a44:	00054703          	lbu	a4,0(a0)
 a48:	05810793          	addi	a5,sp,88
 a4c:	00f13423          	sd	a5,8(sp)
 a50:	08070863          	beqz	a4,ae0 <printf+0xc0>
 a54:	04813023          	sd	s0,64(sp)
 a58:	02913c23          	sd	s1,56(sp)
 a5c:	38000437          	lui	s0,0x38000
 a60:	0e0004b7          	lui	s1,0xe000
 a64:	40b40413          	addi	s0,s0,1035 # 3800040b <count.1+0x37ff17af>
 a68:	10348493          	addi	s1,s1,259 # e000103 <count.1+0xdff14a7>
 a6c:	03213823          	sd	s2,48(sp)
 a70:	03313423          	sd	s3,40(sp)
 a74:	03413023          	sd	s4,32(sp)
 a78:	01513c23          	sd	s5,24(sp)
 a7c:	00050913          	mv	s2,a0
 a80:	02500993          	li	s3,37
 a84:	00241413          	slli	s0,s0,0x2
 a88:	00449493          	slli	s1,s1,0x4
 a8c:	06400a13          	li	s4,100
 a90:	07300a93          	li	s5,115
 a94:	05371c63          	bne	a4,s3,aec <printf+0xcc>
 a98:	00194703          	lbu	a4,1(s2)
 a9c:	0b470c63          	beq	a4,s4,b54 <printf+0x134>
 aa0:	07570a63          	beq	a4,s5,b14 <printf+0xf4>
 aa4:	00042783          	lw	a5,0(s0)
 aa8:	0107f793          	andi	a5,a5,16
 aac:	fe079ce3          	bnez	a5,aa4 <printf+0x84>
 ab0:	0007071b          	sext.w	a4,a4
 ab4:	00e4a023          	sw	a4,0(s1)
 ab8:	00190513          	addi	a0,s2,1
 abc:	00154703          	lbu	a4,1(a0)
 ac0:	00150913          	addi	s2,a0,1
 ac4:	fc0718e3          	bnez	a4,a94 <printf+0x74>
 ac8:	04013403          	ld	s0,64(sp)
 acc:	03813483          	ld	s1,56(sp)
 ad0:	03013903          	ld	s2,48(sp)
 ad4:	02813983          	ld	s3,40(sp)
 ad8:	02013a03          	ld	s4,32(sp)
 adc:	01813a83          	ld	s5,24(sp)
 ae0:	04813083          	ld	ra,72(sp)
 ae4:	09010113          	addi	sp,sp,144
 ae8:	00008067          	ret
 aec:	00042783          	lw	a5,0(s0)
 af0:	0107f793          	andi	a5,a5,16
 af4:	fe079ce3          	bnez	a5,aec <printf+0xcc>
 af8:	0007071b          	sext.w	a4,a4
 afc:	00090513          	mv	a0,s2
 b00:	00e4a023          	sw	a4,0(s1)
 b04:	00154703          	lbu	a4,1(a0)
 b08:	00150913          	addi	s2,a0,1
 b0c:	f80714e3          	bnez	a4,a94 <printf+0x74>
 b10:	fb9ff06f          	j	ac8 <printf+0xa8>
 b14:	00813783          	ld	a5,8(sp)
 b18:	0007b683          	ld	a3,0(a5)
 b1c:	00878793          	addi	a5,a5,8
 b20:	00f13423          	sd	a5,8(sp)
 b24:	0006c703          	lbu	a4,0(a3)
 b28:	f80708e3          	beqz	a4,ab8 <printf+0x98>
 b2c:	00168693          	addi	a3,a3,1
 b30:	00042783          	lw	a5,0(s0)
 b34:	0107f793          	andi	a5,a5,16
 b38:	fe079ce3          	bnez	a5,b30 <printf+0x110>
 b3c:	0007071b          	sext.w	a4,a4
 b40:	00e4a023          	sw	a4,0(s1)
 b44:	0006c703          	lbu	a4,0(a3)
 b48:	fe0712e3          	bnez	a4,b2c <printf+0x10c>
 b4c:	00190513          	addi	a0,s2,1
 b50:	f6dff06f          	j	abc <printf+0x9c>
 b54:	00813783          	ld	a5,8(sp)
 b58:	0007a503          	lw	a0,0(a5)
 b5c:	00878793          	addi	a5,a5,8
 b60:	00f13423          	sd	a5,8(sp)
 b64:	00050863          	beqz	a0,b74 <printf+0x154>
 b68:	ab9ff0ef          	jal	ra,620 <uart_send_integer.part.0>
 b6c:	00190513          	addi	a0,s2,1
 b70:	f4dff06f          	j	abc <printf+0x9c>
 b74:	38000737          	lui	a4,0x38000
 b78:	40b70713          	addi	a4,a4,1035 # 3800040b <count.1+0x37ff17af>
 b7c:	00271713          	slli	a4,a4,0x2
 b80:	00072783          	lw	a5,0(a4)
 b84:	0107f793          	andi	a5,a5,16
 b88:	fe079ce3          	bnez	a5,b80 <printf+0x160>
 b8c:	0e0007b7          	lui	a5,0xe000
 b90:	10378793          	addi	a5,a5,259 # e000103 <count.1+0xdff14a7>
 b94:	00479793          	slli	a5,a5,0x4
 b98:	03000713          	li	a4,48
 b9c:	00e7a023          	sw	a4,0(a5)
 ba0:	00190513          	addi	a0,s2,1
 ba4:	f19ff06f          	j	abc <printf+0x9c>
 ba8:	00050463          	beqz	a0,bb0 <printf+0x190>
 bac:	0000006f          	j	bac <printf+0x18c>
 bb0:	00008067          	ret

0000000000000bb4 <exit>:
 bb4:	0000006f          	j	bb4 <exit>

Disassembly of section .text.startup:

0000000000000bb8 <main>:
 bb8:	ff010113          	addi	sp,sp,-16
 bbc:	00000517          	auipc	a0,0x0
 bc0:	07450513          	addi	a0,a0,116 # c30 <main+0x78>
 bc4:	00113423          	sd	ra,8(sp)
 bc8:	b29ff0ef          	jal	ra,6f0 <uart_send_string>
 bcc:	00813083          	ld	ra,8(sp)
 bd0:	fff00513          	li	a0,-1
 bd4:	01010113          	addi	sp,sp,16
 bd8:	00008067          	ret
