
mt-vvadd.riscv:     file format elf64-littleriscv


Disassembly of section .text.init:

0000000000000000 <_start>:
   0:	00001197          	auipc	gp,0x1
   4:	14818193          	addi	gp,gp,328 # 1148 <_gp>
   8:	00000093          	li	ra,0
   c:	00000113          	li	sp,0
  10:	00000193          	li	gp,0
  14:	00000213          	li	tp,0
  18:	00000293          	li	t0,0
  1c:	00000313          	li	t1,0
  20:	00000393          	li	t2,0
  24:	00000413          	li	s0,0
  28:	00000493          	li	s1,0
  2c:	00000513          	li	a0,0
  30:	00000593          	li	a1,0
  34:	00000613          	li	a2,0
  38:	00000693          	li	a3,0
  3c:	00000713          	li	a4,0
  40:	00000793          	li	a5,0
  44:	00000813          	li	a6,0
  48:	00000893          	li	a7,0
  4c:	00000913          	li	s2,0
  50:	00000993          	li	s3,0
  54:	00000a13          	li	s4,0
  58:	00000a93          	li	s5,0
  5c:	00000b13          	li	s6,0
  60:	00000b93          	li	s7,0
  64:	00000c13          	li	s8,0
  68:	00000c93          	li	s9,0
  6c:	00000d13          	li	s10,0
  70:	00000d93          	li	s11,0
  74:	00000e13          	li	t3,0
  78:	00000e93          	li	t4,0
  7c:	00000f13          	li	t5,0
  80:	00000f93          	li	t6,0
  84:	00100293          	li	t0,1
  88:	01f29293          	slli	t0,t0,0x1f
  8c:	0202d063          	bgez	t0,ac <_start+0xac>
  90:	00100513          	li	a0,1
  94:	000e0337          	lui	t1,0xe0
  98:	0013031b          	addiw	t1,t1,1 # e0001 <sense+0xdb82d>
  9c:	00c31313          	slli	t1,t1,0xc
  a0:	03030313          	addi	t1,t1,48
  a4:	00a32023          	sw	a0,0(t1)
  a8:	fe9ff06f          	j	90 <_start+0x90>
  ac:	00000297          	auipc	t0,0x0
  b0:	08c28293          	addi	t0,t0,140 # 138 <trap_entry>
  b4:	30529073          	csrw	mtvec,t0
  b8:	f1402573          	csrr	a0,mhartid
  bc:	00003617          	auipc	a2,0x3
  c0:	76c60613          	addi	a2,a2,1900 # 3828 <hart_init_sync>
  c4:	00100313          	li	t1,1
  c8:	00660023          	sb	t1,0(a2)
  cc:	0ff0000f          	fence
  d0:	02051863          	bnez	a0,100 <sync_all_harts>
  d4:	00003f17          	auipc	t5,0x3
  d8:	75cf0f13          	addi	t5,t5,1884 # 3830 <results_data.0>
  dc:	00004f97          	auipc	t6,0x4
  e0:	6f4f8f93          	addi	t6,t6,1780 # 47d0 <count>

00000000000000e4 <clear_bss>:
  e4:	01ff5863          	bge	t5,t6,f4 <finish_bss>
  e8:	000f2023          	sw	zero,0(t5)
  ec:	004f0f13          	addi	t5,t5,4
  f0:	ff5ff06f          	j	e4 <clear_bss>

00000000000000f4 <finish_bss>:
  f4:	00003597          	auipc	a1,0x3
  f8:	73458593          	addi	a1,a1,1844 # 3828 <hart_init_sync>
  fc:	0005a023          	sw	zero,0(a1)

0000000000000100 <sync_all_harts>:
 100:	00003597          	auipc	a1,0x3
 104:	72858593          	addi	a1,a1,1832 # 3828 <hart_init_sync>
 108:	0005a603          	lw	a2,0(a1)
 10c:	fe061ae3          	bnez	a2,100 <sync_all_harts>
 110:	00400593          	li	a1,4
 114:	00100e13          	li	t3,1
 118:	012e1393          	slli	t2,t3,0x12
 11c:	027502b3          	mul	t0,a0,t2
 120:	10040337          	lui	t1,0x10040
 124:	00530333          	add	t1,t1,t0
 128:	00030213          	mv	tp,t1
 12c:	00730333          	add	t1,t1,t2
 130:	00030113          	mv	sp,t1
 134:	1a8000ef          	jal	2dc <thread_entry>

0000000000000138 <trap_entry>:
 138:	ef010113          	addi	sp,sp,-272
 13c:	00113423          	sd	ra,8(sp)
 140:	00213823          	sd	sp,16(sp)
 144:	00313c23          	sd	gp,24(sp)
 148:	02413023          	sd	tp,32(sp)
 14c:	02513423          	sd	t0,40(sp)
 150:	02613823          	sd	t1,48(sp)
 154:	02713c23          	sd	t2,56(sp)
 158:	04813023          	sd	s0,64(sp)
 15c:	04913423          	sd	s1,72(sp)
 160:	04a13823          	sd	a0,80(sp)
 164:	04b13c23          	sd	a1,88(sp)
 168:	06c13023          	sd	a2,96(sp)
 16c:	06d13423          	sd	a3,104(sp)
 170:	06e13823          	sd	a4,112(sp)
 174:	06f13c23          	sd	a5,120(sp)
 178:	09013023          	sd	a6,128(sp)
 17c:	09113423          	sd	a7,136(sp)
 180:	09213823          	sd	s2,144(sp)
 184:	09313c23          	sd	s3,152(sp)
 188:	0b413023          	sd	s4,160(sp)
 18c:	0b513423          	sd	s5,168(sp)
 190:	0b613823          	sd	s6,176(sp)
 194:	0b713c23          	sd	s7,184(sp)
 198:	0d813023          	sd	s8,192(sp)
 19c:	0d913423          	sd	s9,200(sp)
 1a0:	0da13823          	sd	s10,208(sp)
 1a4:	0db13c23          	sd	s11,216(sp)
 1a8:	0fc13023          	sd	t3,224(sp)
 1ac:	0fd13423          	sd	t4,232(sp)
 1b0:	0fe13823          	sd	t5,240(sp)
 1b4:	0ff13c23          	sd	t6,248(sp)
 1b8:	34202573          	csrr	a0,mcause
 1bc:	341025f3          	csrr	a1,mepc
 1c0:	00010613          	mv	a2,sp
 1c4:	118000ef          	jal	2dc <thread_entry>
 1c8:	34151073          	csrw	mepc,a0
 1cc:	000022b7          	lui	t0,0x2
 1d0:	8002829b          	addiw	t0,t0,-2048 # 1800 <_gp+0x6b8>
 1d4:	3002a073          	csrs	mstatus,t0
 1d8:	00813083          	ld	ra,8(sp)
 1dc:	01013103          	ld	sp,16(sp)
 1e0:	01813183          	ld	gp,24(sp)
 1e4:	02013203          	ld	tp,32(sp)
 1e8:	02813283          	ld	t0,40(sp)
 1ec:	03013303          	ld	t1,48(sp)
 1f0:	03813383          	ld	t2,56(sp)
 1f4:	04013403          	ld	s0,64(sp)
 1f8:	04813483          	ld	s1,72(sp)
 1fc:	05013503          	ld	a0,80(sp)
 200:	05813583          	ld	a1,88(sp)
 204:	06013603          	ld	a2,96(sp)
 208:	06813683          	ld	a3,104(sp)
 20c:	07013703          	ld	a4,112(sp)
 210:	07813783          	ld	a5,120(sp)
 214:	08013803          	ld	a6,128(sp)
 218:	08813883          	ld	a7,136(sp)
 21c:	09013903          	ld	s2,144(sp)
 220:	09813983          	ld	s3,152(sp)
 224:	0a013a03          	ld	s4,160(sp)
 228:	0a813a83          	ld	s5,168(sp)
 22c:	0b013b03          	ld	s6,176(sp)
 230:	0b813b83          	ld	s7,184(sp)
 234:	0c013c03          	ld	s8,192(sp)
 238:	0c813c83          	ld	s9,200(sp)
 23c:	0d013d03          	ld	s10,208(sp)
 240:	0d813d83          	ld	s11,216(sp)
 244:	0e013e03          	ld	t3,224(sp)
 248:	0e813e83          	ld	t4,232(sp)
 24c:	0f013f03          	ld	t5,240(sp)
 250:	0f813f83          	ld	t6,248(sp)
 254:	11010113          	addi	sp,sp,272
 258:	30200073          	mret

Disassembly of section .text:

000000000000025c <barrier>:
 25c:	0ff0000f          	fence
 260:	00022703          	lw	a4,0(tp) # 0 <_start>
 264:	00100693          	li	a3,1
 268:	00173713          	seqz	a4,a4
 26c:	00e22023          	sw	a4,0(tp) # 0 <_start>
 270:	00004717          	auipc	a4,0x4
 274:	56070713          	addi	a4,a4,1376 # 47d0 <count>
 278:	06d7272f          	amoadd.w.aqrl	a4,a3,(a4)
 27c:	0007071b          	sext.w	a4,a4
 280:	fff5051b          	addiw	a0,a0,-1
 284:	02e50063          	beq	a0,a4,2a4 <barrier+0x48>
 288:	00022683          	lw	a3,0(tp) # 0 <_start>
 28c:	00004717          	auipc	a4,0x4
 290:	54870713          	addi	a4,a4,1352 # 47d4 <sense>
 294:	00072783          	lw	a5,0(a4)
 298:	fed79ee3          	bne	a5,a3,294 <barrier+0x38>
 29c:	0ff0000f          	fence
 2a0:	00008067          	ret
 2a4:	00022783          	lw	a5,0(tp) # 0 <_start>
 2a8:	00004717          	auipc	a4,0x4
 2ac:	52072423          	sw	zero,1320(a4) # 47d0 <count>
 2b0:	00004717          	auipc	a4,0x4
 2b4:	52f72223          	sw	a5,1316(a4) # 47d4 <sense>
 2b8:	fe5ff06f          	j	29c <barrier+0x40>

00000000000002bc <initialize_count_asm>:
 2bc:	00004797          	auipc	a5,0x4
 2c0:	51478793          	addi	a5,a5,1300 # 47d0 <count>
 2c4:	00a7b023          	sd	a0,0(a5)
 2c8:	00008067          	ret

00000000000002cc <initialize_sense_asm>:
 2cc:	00004797          	auipc	a5,0x4
 2d0:	50878793          	addi	a5,a5,1288 # 47d4 <sense>
 2d4:	00a7b023          	sd	a0,0(a5)
 2d8:	00008067          	ret

00000000000002dc <thread_entry>:
 2dc:	fe010113          	addi	sp,sp,-32
 2e0:	00813823          	sd	s0,16(sp)
 2e4:	00913423          	sd	s1,8(sp)
 2e8:	00113c23          	sd	ra,24(sp)
 2ec:	00050413          	mv	s0,a0
 2f0:	00058493          	mv	s1,a1
 2f4:	00004797          	auipc	a5,0x4
 2f8:	4dc78793          	addi	a5,a5,1244 # 47d0 <count>
 2fc:	00000713          	li	a4,0
 300:	00e7b023          	sd	a4,0(a5)
 304:	00003797          	auipc	a5,0x3
 308:	52c78793          	addi	a5,a5,1324 # 3830 <results_data.0>
 30c:	00001717          	auipc	a4,0x1
 310:	5dc70713          	addi	a4,a4,1500 # 18e8 <input_data_Y>
 314:	00002697          	auipc	a3,0x2
 318:	57468693          	addi	a3,a3,1396 # 2888 <input_data_X>
 31c:	3e800613          	li	a2,1000
 320:	09c000ef          	jal	3bc <vvadd>
 324:	00048513          	mv	a0,s1
 328:	f35ff0ef          	jal	25c <barrier>
 32c:	00040663          	beqz	s0,338 <thread_entry+0x5c>
 330:	00200513          	li	a0,2
 334:	564000ef          	jal	898 <exit>
 338:	00000517          	auipc	a0,0x0
 33c:	59850513          	addi	a0,a0,1432 # 8d0 <main+0x34>
 340:	184000ef          	jal	4c4 <uart_send_string>
 344:	00003717          	auipc	a4,0x3
 348:	4ec70713          	addi	a4,a4,1260 # 3830 <results_data.0>
 34c:	00000797          	auipc	a5,0x0
 350:	5fc78793          	addi	a5,a5,1532 # 948 <verify_data_Z>
 354:	00000513          	li	a0,0
 358:	3e800893          	li	a7,1000
 35c:	0180006f          	j	374 <thread_entry+0x98>
 360:	0025051b          	addiw	a0,a0,2
 364:	03069663          	bne	a3,a6,390 <thread_entry+0xb4>
 368:	00870713          	addi	a4,a4,8
 36c:	00878793          	addi	a5,a5,8
 370:	05150263          	beq	a0,a7,3b4 <thread_entry+0xd8>
 374:	00072603          	lw	a2,0(a4)
 378:	0007a583          	lw	a1,0(a5)
 37c:	00472683          	lw	a3,4(a4)
 380:	0047a803          	lw	a6,4(a5)
 384:	0006869b          	sext.w	a3,a3
 388:	fcc58ce3          	beq	a1,a2,360 <thread_entry+0x84>
 38c:	0015051b          	addiw	a0,a0,1
 390:	160000ef          	jal	4f0 <uart_send_integer>
 394:	00000517          	auipc	a0,0x0
 398:	56450513          	addi	a0,a0,1380 # 8f8 <main+0x5c>
 39c:	128000ef          	jal	4c4 <uart_send_string>
 3a0:	00003597          	auipc	a1,0x3
 3a4:	49058593          	addi	a1,a1,1168 # 3830 <results_data.0>
 3a8:	3e800513          	li	a0,1000
 3ac:	294000ef          	jal	640 <syscall_print_array>
 3b0:	f81ff06f          	j	330 <thread_entry+0x54>
 3b4:	00000513          	li	a0,0
 3b8:	fd9ff06f          	j	390 <thread_entry+0xb4>

00000000000003bc <vvadd>:
 3bc:	02b645bb          	divw	a1,a2,a1
 3c0:	02a5883b          	mulw	a6,a1,a0
 3c4:	0105833b          	addw	t1,a1,a6
 3c8:	00080513          	mv	a0,a6
 3cc:	00030893          	mv	a7,t1
 3d0:	00665463          	bge	a2,t1,3d8 <vvadd+0x1c>
 3d4:	0006089b          	sext.w	a7,a2
 3d8:	011585bb          	addw	a1,a1,a7
 3dc:	00b65463          	bge	a2,a1,3e4 <vvadd+0x28>
 3e0:	00060893          	mv	a7,a2
 3e4:	05185063          	bge	a6,a7,424 <vvadd+0x68>
 3e8:	40a8853b          	subw	a0,a7,a0
 3ec:	02051513          	slli	a0,a0,0x20
 3f0:	02055513          	srli	a0,a0,0x20
 3f4:	01050533          	add	a0,a0,a6
 3f8:	00281613          	slli	a2,a6,0x2
 3fc:	00251513          	slli	a0,a0,0x2
 400:	00c68833          	add	a6,a3,a2
 404:	00c705b3          	add	a1,a4,a2
 408:	00082883          	lw	a7,0(a6)
 40c:	0005a583          	lw	a1,0(a1)
 410:	00c78833          	add	a6,a5,a2
 414:	00460613          	addi	a2,a2,4
 418:	011585bb          	addw	a1,a1,a7
 41c:	00b82023          	sw	a1,0(a6)
 420:	fea610e3          	bne	a2,a0,400 <vvadd+0x44>
 424:	00008067          	ret

0000000000000428 <uart_send_integer.part.0>:
 428:	08054063          	bltz	a0,4a8 <uart_send_integer.part.0+0x80>
 42c:	06050c63          	beqz	a0,4a4 <uart_send_integer.part.0+0x7c>
 430:	ff010113          	addi	sp,sp,-16
 434:	00010793          	mv	a5,sp
 438:	00078713          	mv	a4,a5
 43c:	00a00613          	li	a2,10
 440:	02c566bb          	remw	a3,a0,a2
 444:	00070593          	mv	a1,a4
 448:	00170713          	addi	a4,a4,1
 44c:	02c5453b          	divw	a0,a0,a2
 450:	0306869b          	addiw	a3,a3,48
 454:	fed70fa3          	sb	a3,-1(a4)
 458:	fe0514e3          	bnez	a0,440 <uart_send_integer.part.0+0x18>
 45c:	40f585bb          	subw	a1,a1,a5
 460:	0015871b          	addiw	a4,a1,1
 464:	fff7059b          	addiw	a1,a4,-1
 468:	fff78613          	addi	a2,a5,-1
 46c:	0e0006b7          	lui	a3,0xe000
 470:	02059593          	slli	a1,a1,0x20
 474:	00e60633          	add	a2,a2,a4
 478:	0205d593          	srli	a1,a1,0x20
 47c:	10368693          	addi	a3,a3,259 # e000103 <sense+0xdffb92f>
 480:	00e787b3          	add	a5,a5,a4
 484:	40b60633          	sub	a2,a2,a1
 488:	00469693          	slli	a3,a3,0x4
 48c:	fff7c703          	lbu	a4,-1(a5)
 490:	fff78793          	addi	a5,a5,-1
 494:	00e6a023          	sw	a4,0(a3)
 498:	fec79ae3          	bne	a5,a2,48c <uart_send_integer.part.0+0x64>
 49c:	01010113          	addi	sp,sp,16
 4a0:	00008067          	ret
 4a4:	00008067          	ret
 4a8:	0e0007b7          	lui	a5,0xe000
 4ac:	10378793          	addi	a5,a5,259 # e000103 <sense+0xdffb92f>
 4b0:	00479793          	slli	a5,a5,0x4
 4b4:	02d00713          	li	a4,45
 4b8:	00e7a023          	sw	a4,0(a5)
 4bc:	40a0053b          	negw	a0,a0
 4c0:	f71ff06f          	j	430 <uart_send_integer.part.0+0x8>

00000000000004c4 <uart_send_string>:
 4c4:	00054783          	lbu	a5,0(a0)
 4c8:	02078263          	beqz	a5,4ec <uart_send_string+0x28>
 4cc:	0e000737          	lui	a4,0xe000
 4d0:	10370713          	addi	a4,a4,259 # e000103 <sense+0xdffb92f>
 4d4:	00471713          	slli	a4,a4,0x4
 4d8:	0007879b          	sext.w	a5,a5
 4dc:	00150513          	addi	a0,a0,1
 4e0:	00f72023          	sw	a5,0(a4)
 4e4:	00054783          	lbu	a5,0(a0)
 4e8:	fe0798e3          	bnez	a5,4d8 <uart_send_string+0x14>
 4ec:	00008067          	ret

00000000000004f0 <uart_send_integer>:
 4f0:	00050463          	beqz	a0,4f8 <uart_send_integer+0x8>
 4f4:	f35ff06f          	j	428 <uart_send_integer.part.0>
 4f8:	0e0007b7          	lui	a5,0xe000
 4fc:	10378793          	addi	a5,a5,259 # e000103 <sense+0xdffb92f>
 500:	00479793          	slli	a5,a5,0x4
 504:	03000713          	li	a4,48
 508:	00e7a023          	sw	a4,0(a5)
 50c:	00008067          	ret

0000000000000510 <syscall_print_matrix>:
 510:	0e0006b7          	lui	a3,0xe000
 514:	fb010113          	addi	sp,sp,-80
 518:	10368693          	addi	a3,a3,259 # e000103 <sense+0xdffb92f>
 51c:	03413023          	sd	s4,32(sp)
 520:	04113423          	sd	ra,72(sp)
 524:	00050a13          	mv	s4,a0
 528:	05200793          	li	a5,82
 52c:	00000717          	auipc	a4,0x0
 530:	3d470713          	addi	a4,a4,980 # 900 <main+0x64>
 534:	00469693          	slli	a3,a3,0x4
 538:	0007879b          	sext.w	a5,a5
 53c:	00170713          	addi	a4,a4,1
 540:	00f6a023          	sw	a5,0(a3)
 544:	00074783          	lbu	a5,0(a4)
 548:	fe0798e3          	bnez	a5,538 <syscall_print_matrix+0x28>
 54c:	0b405c63          	blez	s4,604 <syscall_print_matrix+0xf4>
 550:	02913c23          	sd	s1,56(sp)
 554:	0e0004b7          	lui	s1,0xe000
 558:	01613823          	sd	s6,16(sp)
 55c:	10348493          	addi	s1,s1,259 # e000103 <sense+0xdffb92f>
 560:	002a1b13          	slli	s6,s4,0x2
 564:	03213823          	sd	s2,48(sp)
 568:	03313423          	sd	s3,40(sp)
 56c:	01513c23          	sd	s5,24(sp)
 570:	01713423          	sd	s7,8(sp)
 574:	04813023          	sd	s0,64(sp)
 578:	01658933          	add	s2,a1,s6
 57c:	00000a93          	li	s5,0
 580:	00449493          	slli	s1,s1,0x4
 584:	03000b93          	li	s7,48
 588:	02000993          	li	s3,32
 58c:	41690433          	sub	s0,s2,s6
 590:	0140006f          	j	5a4 <syscall_print_matrix+0x94>
 594:	e95ff0ef          	jal	428 <uart_send_integer.part.0>
 598:	00440413          	addi	s0,s0,4
 59c:	0134a023          	sw	s3,0(s1)
 5a0:	01240e63          	beq	s0,s2,5bc <syscall_print_matrix+0xac>
 5a4:	00042503          	lw	a0,0(s0)
 5a8:	fe0516e3          	bnez	a0,594 <syscall_print_matrix+0x84>
 5ac:	0174a023          	sw	s7,0(s1)
 5b0:	0134a023          	sw	s3,0(s1)
 5b4:	00440413          	addi	s0,s0,4
 5b8:	ff2416e3          	bne	s0,s2,5a4 <syscall_print_matrix+0x94>
 5bc:	00d00793          	li	a5,13
 5c0:	00000717          	auipc	a4,0x0
 5c4:	35870713          	addi	a4,a4,856 # 918 <main+0x7c>
 5c8:	0007879b          	sext.w	a5,a5
 5cc:	00170713          	addi	a4,a4,1
 5d0:	00f4a023          	sw	a5,0(s1)
 5d4:	00074783          	lbu	a5,0(a4)
 5d8:	fe0798e3          	bnez	a5,5c8 <syscall_print_matrix+0xb8>
 5dc:	001a8a9b          	addiw	s5,s5,1
 5e0:	01690933          	add	s2,s2,s6
 5e4:	fb5a14e3          	bne	s4,s5,58c <syscall_print_matrix+0x7c>
 5e8:	04013403          	ld	s0,64(sp)
 5ec:	03813483          	ld	s1,56(sp)
 5f0:	03013903          	ld	s2,48(sp)
 5f4:	02813983          	ld	s3,40(sp)
 5f8:	01813a83          	ld	s5,24(sp)
 5fc:	01013b03          	ld	s6,16(sp)
 600:	00813b83          	ld	s7,8(sp)
 604:	0e0006b7          	lui	a3,0xe000
 608:	10368693          	addi	a3,a3,259 # e000103 <sense+0xdffb92f>
 60c:	00d00793          	li	a5,13
 610:	00000717          	auipc	a4,0x0
 614:	30870713          	addi	a4,a4,776 # 918 <main+0x7c>
 618:	00469693          	slli	a3,a3,0x4
 61c:	0007879b          	sext.w	a5,a5
 620:	00170713          	addi	a4,a4,1
 624:	00f6a023          	sw	a5,0(a3)
 628:	00074783          	lbu	a5,0(a4)
 62c:	fe0798e3          	bnez	a5,61c <syscall_print_matrix+0x10c>
 630:	04813083          	ld	ra,72(sp)
 634:	02013a03          	ld	s4,32(sp)
 638:	05010113          	addi	sp,sp,80
 63c:	00008067          	ret

0000000000000640 <syscall_print_array>:
 640:	0e0006b7          	lui	a3,0xe000
 644:	10368693          	addi	a3,a3,259 # e000103 <sense+0xdffb92f>
 648:	05200793          	li	a5,82
 64c:	00000717          	auipc	a4,0x0
 650:	2d470713          	addi	a4,a4,724 # 920 <main+0x84>
 654:	00469693          	slli	a3,a3,0x4
 658:	0007879b          	sext.w	a5,a5
 65c:	00170713          	addi	a4,a4,1
 660:	00f6a023          	sw	a5,0(a3)
 664:	00074783          	lbu	a5,0(a4)
 668:	fe0798e3          	bnez	a5,658 <syscall_print_array+0x18>
 66c:	0aa05c63          	blez	a0,724 <syscall_print_array+0xe4>
 670:	fd010113          	addi	sp,sp,-48
 674:	01213823          	sd	s2,16(sp)
 678:	0e000937          	lui	s2,0xe000
 67c:	00251513          	slli	a0,a0,0x2
 680:	10390913          	addi	s2,s2,259 # e000103 <sense+0xdffb92f>
 684:	02813023          	sd	s0,32(sp)
 688:	00913c23          	sd	s1,24(sp)
 68c:	01313423          	sd	s3,8(sp)
 690:	01413023          	sd	s4,0(sp)
 694:	02113423          	sd	ra,40(sp)
 698:	00058413          	mv	s0,a1
 69c:	00a584b3          	add	s1,a1,a0
 6a0:	00491913          	slli	s2,s2,0x4
 6a4:	03000a13          	li	s4,48
 6a8:	02000993          	li	s3,32
 6ac:	0140006f          	j	6c0 <syscall_print_array+0x80>
 6b0:	d79ff0ef          	jal	428 <uart_send_integer.part.0>
 6b4:	00440413          	addi	s0,s0,4
 6b8:	01392023          	sw	s3,0(s2)
 6bc:	00940e63          	beq	s0,s1,6d8 <syscall_print_array+0x98>
 6c0:	00042503          	lw	a0,0(s0)
 6c4:	fe0516e3          	bnez	a0,6b0 <syscall_print_array+0x70>
 6c8:	01492023          	sw	s4,0(s2)
 6cc:	01392023          	sw	s3,0(s2)
 6d0:	00440413          	addi	s0,s0,4
 6d4:	fe9416e3          	bne	s0,s1,6c0 <syscall_print_array+0x80>
 6d8:	0e0006b7          	lui	a3,0xe000
 6dc:	10368693          	addi	a3,a3,259 # e000103 <sense+0xdffb92f>
 6e0:	00d00793          	li	a5,13
 6e4:	00000717          	auipc	a4,0x0
 6e8:	23470713          	addi	a4,a4,564 # 918 <main+0x7c>
 6ec:	00469693          	slli	a3,a3,0x4
 6f0:	0007879b          	sext.w	a5,a5
 6f4:	00170713          	addi	a4,a4,1
 6f8:	00f6a023          	sw	a5,0(a3)
 6fc:	00074783          	lbu	a5,0(a4)
 700:	fe0798e3          	bnez	a5,6f0 <syscall_print_array+0xb0>
 704:	02813083          	ld	ra,40(sp)
 708:	02013403          	ld	s0,32(sp)
 70c:	01813483          	ld	s1,24(sp)
 710:	01013903          	ld	s2,16(sp)
 714:	00813983          	ld	s3,8(sp)
 718:	00013a03          	ld	s4,0(sp)
 71c:	03010113          	addi	sp,sp,48
 720:	00008067          	ret
 724:	0e0006b7          	lui	a3,0xe000
 728:	10368693          	addi	a3,a3,259 # e000103 <sense+0xdffb92f>
 72c:	00d00793          	li	a5,13
 730:	00000717          	auipc	a4,0x0
 734:	1e870713          	addi	a4,a4,488 # 918 <main+0x7c>
 738:	00469693          	slli	a3,a3,0x4
 73c:	0007879b          	sext.w	a5,a5
 740:	00170713          	addi	a4,a4,1
 744:	00f6a023          	sw	a5,0(a3)
 748:	00074783          	lbu	a5,0(a4)
 74c:	fe0798e3          	bnez	a5,73c <syscall_print_array+0xfc>
 750:	00008067          	ret

0000000000000754 <printf>:
 754:	f8010113          	addi	sp,sp,-128
 758:	06e13023          	sd	a4,96(sp)
 75c:	02113c23          	sd	ra,56(sp)
 760:	04b13423          	sd	a1,72(sp)
 764:	04c13823          	sd	a2,80(sp)
 768:	04d13c23          	sd	a3,88(sp)
 76c:	06f13423          	sd	a5,104(sp)
 770:	07013823          	sd	a6,112(sp)
 774:	07113c23          	sd	a7,120(sp)
 778:	00054783          	lbu	a5,0(a0)
 77c:	04810713          	addi	a4,sp,72
 780:	00e13423          	sd	a4,8(sp)
 784:	06078263          	beqz	a5,7e8 <printf+0x94>
 788:	02913423          	sd	s1,40(sp)
 78c:	0e0004b7          	lui	s1,0xe000
 790:	10348493          	addi	s1,s1,259 # e000103 <sense+0xdffb92f>
 794:	02813823          	sd	s0,48(sp)
 798:	03213023          	sd	s2,32(sp)
 79c:	01313c23          	sd	s3,24(sp)
 7a0:	01413823          	sd	s4,16(sp)
 7a4:	00050413          	mv	s0,a0
 7a8:	02500913          	li	s2,37
 7ac:	00449493          	slli	s1,s1,0x4
 7b0:	06400993          	li	s3,100
 7b4:	07300a13          	li	s4,115
 7b8:	03278e63          	beq	a5,s2,7f4 <printf+0xa0>
 7bc:	0007879b          	sext.w	a5,a5
 7c0:	00f4a023          	sw	a5,0(s1)
 7c4:	00040513          	mv	a0,s0
 7c8:	00154783          	lbu	a5,1(a0)
 7cc:	00150413          	addi	s0,a0,1
 7d0:	fe0794e3          	bnez	a5,7b8 <printf+0x64>
 7d4:	03013403          	ld	s0,48(sp)
 7d8:	02813483          	ld	s1,40(sp)
 7dc:	02013903          	ld	s2,32(sp)
 7e0:	01813983          	ld	s3,24(sp)
 7e4:	01013a03          	ld	s4,16(sp)
 7e8:	03813083          	ld	ra,56(sp)
 7ec:	08010113          	addi	sp,sp,128
 7f0:	00008067          	ret
 7f4:	00144783          	lbu	a5,1(s0)
 7f8:	01378c63          	beq	a5,s3,810 <printf+0xbc>
 7fc:	05478863          	beq	a5,s4,84c <printf+0xf8>
 800:	0007879b          	sext.w	a5,a5
 804:	00f4a023          	sw	a5,0(s1)
 808:	00140513          	addi	a0,s0,1
 80c:	fbdff06f          	j	7c8 <printf+0x74>
 810:	00813783          	ld	a5,8(sp)
 814:	0007a503          	lw	a0,0(a5)
 818:	00878793          	addi	a5,a5,8
 81c:	00f13423          	sd	a5,8(sp)
 820:	00050863          	beqz	a0,830 <printf+0xdc>
 824:	c05ff0ef          	jal	428 <uart_send_integer.part.0>
 828:	00140513          	addi	a0,s0,1
 82c:	f9dff06f          	j	7c8 <printf+0x74>
 830:	0e0007b7          	lui	a5,0xe000
 834:	10378793          	addi	a5,a5,259 # e000103 <sense+0xdffb92f>
 838:	00479793          	slli	a5,a5,0x4
 83c:	03000713          	li	a4,48
 840:	00e7a023          	sw	a4,0(a5)
 844:	00140513          	addi	a0,s0,1
 848:	f81ff06f          	j	7c8 <printf+0x74>
 84c:	00813783          	ld	a5,8(sp)
 850:	0007b703          	ld	a4,0(a5)
 854:	00878793          	addi	a5,a5,8
 858:	00f13423          	sd	a5,8(sp)
 85c:	00074783          	lbu	a5,0(a4)
 860:	fa0784e3          	beqz	a5,808 <printf+0xb4>
 864:	0e0006b7          	lui	a3,0xe000
 868:	10368693          	addi	a3,a3,259 # e000103 <sense+0xdffb92f>
 86c:	00469693          	slli	a3,a3,0x4
 870:	0007879b          	sext.w	a5,a5
 874:	00170713          	addi	a4,a4,1
 878:	00f6a023          	sw	a5,0(a3)
 87c:	00074783          	lbu	a5,0(a4)
 880:	fe0798e3          	bnez	a5,870 <printf+0x11c>
 884:	00140513          	addi	a0,s0,1
 888:	f41ff06f          	j	7c8 <printf+0x74>
 88c:	00050463          	beqz	a0,894 <printf+0x140>
 890:	0000006f          	j	890 <printf+0x13c>
 894:	00008067          	ret

0000000000000898 <exit>:
 898:	0000006f          	j	898 <exit>

Disassembly of section .text.startup:

000000000000089c <main>:
 89c:	0e0006b7          	lui	a3,0xe000
 8a0:	10368693          	addi	a3,a3,259 # e000103 <sense+0xdffb92f>
 8a4:	04900793          	li	a5,73
 8a8:	00000717          	auipc	a4,0x0
 8ac:	08870713          	addi	a4,a4,136 # 930 <main+0x94>
 8b0:	00469693          	slli	a3,a3,0x4
 8b4:	0007879b          	sext.w	a5,a5
 8b8:	00170713          	addi	a4,a4,1
 8bc:	00f6a023          	sw	a5,0(a3)
 8c0:	00074783          	lbu	a5,0(a4)
 8c4:	fe0798e3          	bnez	a5,8b4 <main+0x18>
 8c8:	fff00513          	li	a0,-1
 8cc:	00008067          	ret
